; Listing generated by Microsoft (R) Optimizing Compiler Version 19.16.27034.0 

	TITLE	D:\Facul\6o Semestre\Arquitetura de Computadores\Lab\Exemplos_x86\Exemplos_x86\Exemplos_x86.cpp
	.686P
	.XMM
	include listing.inc
	.model	flat

INCLUDELIB MSVCRTD
INCLUDELIB OLDNAMES

msvcjmc	SEGMENT
__FE1EB572_pch@h DB 01H
__35574B04_exemplos_x86@pch DB 01H
__122CF1B0_xstddef DB 01H
__E53366A2_utility DB 01H
__F2A749D8_streambuf DB 01H
__375B2D08_ostream DB 01H
__548B1832_istream DB 01H
__FB7583FD_xstring DB 01H
__A8B04EBD_exemplos_x86@cpp DB 01H
__D1FEDD45_ios DB 01H
__BACC91DB_xlocnum DB 01H
__9B0361F4_xiosbase DB 01H
__FD5040F3_system_error DB 01H
__420D52D3_xcall_once@h DB 01H
__244BF7CC_xlocale DB 01H
__223B5856_xfacet DB 01H
__0E7E0F59_memory DB 01H
__A2E616E7_xlocinfo DB 01H
__7B7A869E_ctype@h DB 01H
__C42C8B73_vcruntime_typeinfo@h DB 01H
__F007F164_stdexcept DB 01H
__C334353D_xatomic0@h DB 01H
__1CE3C767_xmemory0 DB 01H
__CDB00636_xutility DB 01H
__7E39D651_iosfwd DB 01H
__B2D003D7_limits DB 01H
__5A74375D_wchar@h DB 01H
__A40A425D_stat@h DB 01H
__C0802A2B_corecrt_wtime@h DB 01H
__F0CC4AC4_corecrt_wio@h DB 01H
__41381B41_corecrt_wconio@h DB 01H
__7949CB39_exception DB 01H
__9BB4E194_vcruntime_exception@h DB 01H
__331E732B_malloc@h DB 01H
__5ECFF36E_type_traits DB 01H
__2140C079_string@h DB 01H
__4E51A221_corecrt_wstring@h DB 01H
__2088847F_corecrt_memory@h DB 01H
__4384A2D9_corecrt_memcpy_s@h DB 01H
__A452D4A0_stdio@h DB 01H
__05476D76_corecrt_wstdio@h DB 01H
__2CC6E67D_corecrt_stdio_config@h DB 01H
__3736D25A_xtgmath@h DB 01H
__824D367B_cmath DB 01H
__D23EE329_cstdlib DB 01H
__188180DA_corecrt_math@h DB 01H
__A73354DD_stdlib@h DB 01H
__6BC0FD35_vcruntime_new@h DB 01H
msvcjmc	ENDS
PUBLIC	?__empty_global_delete@@YAXPAX@Z		; __empty_global_delete
PUBLIC	?__empty_global_delete@@YAXPAXI@Z		; __empty_global_delete
PUBLIC	?length@?$char_traits@D@std@@SAIQBD@Z		; std::char_traits<char>::length
PUBLIC	?eq_int_type@?$char_traits@D@std@@SA_NABH0@Z	; std::char_traits<char>::eq_int_type
PUBLIC	?eof@?$char_traits@D@std@@SAHXZ			; std::char_traits<char>::eof
PUBLIC	?Exemplo1@@YAXXZ				; Exemplo1
PUBLIC	?Exemplo2@@YAXXZ				; Exemplo2
PUBLIC	?Exemplo3@@YAXXZ				; Exemplo3
PUBLIC	?Exemplo4@@YAXXZ				; Exemplo4
PUBLIC	?Exemplo5@@YAXXZ				; Exemplo5
PUBLIC	?Relogio@@YAXXZ					; Relogio
PUBLIC	?Delta@@YAXXZ					; Delta
PUBLIC	?Facens@@YAXXZ					; Facens
PUBLIC	?Maior@@YAXXZ					; Maior
PUBLIC	?Exercicio1@@YAXXZ				; Exercicio1
PUBLIC	?Exercicio2@@YAXXZ				; Exercicio2
PUBLIC	_main
PUBLIC	??$?6U?$char_traits@D@std@@@std@@YAAAV?$basic_ostream@DU?$char_traits@D@std@@@0@AAV10@PBD@Z ; std::operator<<<std::char_traits<char> >
PUBLIC	??0_Sentry_base@?$basic_ostream@DU?$char_traits@D@std@@@std@@QAE@AAV12@@Z ; std::basic_ostream<char,std::char_traits<char> >::_Sentry_base::_Sentry_base
PUBLIC	??1_Sentry_base@?$basic_ostream@DU?$char_traits@D@std@@@std@@QAE@XZ ; std::basic_ostream<char,std::char_traits<char> >::_Sentry_base::~_Sentry_base
PUBLIC	??0sentry@?$basic_ostream@DU?$char_traits@D@std@@@std@@QAE@AAV12@@Z ; std::basic_ostream<char,std::char_traits<char> >::sentry::sentry
PUBLIC	??1sentry@?$basic_ostream@DU?$char_traits@D@std@@@std@@QAE@XZ ; std::basic_ostream<char,std::char_traits<char> >::sentry::~sentry
PUBLIC	??Bsentry@?$basic_ostream@DU?$char_traits@D@std@@@std@@QBE_NXZ ; std::basic_ostream<char,std::char_traits<char> >::sentry::operator bool
PUBLIC	__JustMyCode_Default
PUBLIC	??_C@_0O@NFOCKKMG@Hello?5World?$CB?6@		; `string'
PUBLIC	??_C@_0L@IGKLLFEF@Valor?5?$DN?5?$CFi@		; `string'
PUBLIC	??_C@_06NJEHJNMA@FACENS@			; `string'
PUBLIC	??_C@_06DGLOOOEP@teste?$AA@			; `string'
EXTRN	_strlen:PROC
EXTRN	?uncaught_exception@std@@YA_NXZ:PROC		; std::uncaught_exception
EXTRN	__imp_?good@ios_base@std@@QBE_NXZ:PROC
EXTRN	__imp_?flags@ios_base@std@@QBEHXZ:PROC
EXTRN	__imp_?width@ios_base@std@@QBE_JXZ:PROC
EXTRN	__imp_?width@ios_base@std@@QAE_J_J@Z:PROC
EXTRN	__imp_?sputc@?$basic_streambuf@DU?$char_traits@D@std@@@std@@QAEHD@Z:PROC
EXTRN	__imp_?sputn@?$basic_streambuf@DU?$char_traits@D@std@@@std@@QAE_JPBD_J@Z:PROC
EXTRN	__imp_?setstate@?$basic_ios@DU?$char_traits@D@std@@@std@@QAEXH_N@Z:PROC
EXTRN	__imp_?tie@?$basic_ios@DU?$char_traits@D@std@@@std@@QBEPAV?$basic_ostream@DU?$char_traits@D@std@@@2@XZ:PROC
EXTRN	__imp_?rdbuf@?$basic_ios@DU?$char_traits@D@std@@@std@@QBEPAV?$basic_streambuf@DU?$char_traits@D@std@@@2@XZ:PROC
EXTRN	__imp_?fill@?$basic_ios@DU?$char_traits@D@std@@@std@@QBEDXZ:PROC
EXTRN	__imp_?_Osfx@?$basic_ostream@DU?$char_traits@D@std@@@std@@QAEXXZ:PROC
EXTRN	__imp_?flush@?$basic_ostream@DU?$char_traits@D@std@@@std@@QAEAAV12@XZ:PROC
EXTRN	@_RTC_CheckStackVars@8:PROC
EXTRN	@__CheckForDebuggerJustMyCode@4:PROC
EXTRN	@__security_check_cookie@4:PROC
EXTRN	__RTC_CheckEsp:PROC
EXTRN	__RTC_InitBase:PROC
EXTRN	__RTC_Shutdown:PROC
EXTRN	___CxxFrameHandler3:PROC
EXTRN	__imp_?cout@std@@3V?$basic_ostream@DU?$char_traits@D@std@@@1@A:BYTE
EXTRN	___security_cookie:DWORD
;	COMDAT rtc$TMZ
rtc$TMZ	SEGMENT
__RTC_Shutdown.rtc$TMZ DD FLAT:__RTC_Shutdown
rtc$TMZ	ENDS
;	COMDAT rtc$IMZ
rtc$IMZ	SEGMENT
__RTC_InitBase.rtc$IMZ DD FLAT:__RTC_InitBase
rtc$IMZ	ENDS
;	COMDAT ??_C@_06DGLOOOEP@teste?$AA@
CONST	SEGMENT
??_C@_06DGLOOOEP@teste?$AA@ DB 'teste', 00H, 00H	; `string'
CONST	ENDS
;	COMDAT ??_C@_06NJEHJNMA@FACENS@
CONST	SEGMENT
??_C@_06NJEHJNMA@FACENS@ DB 'FACENS', 00H		; `string'
CONST	ENDS
;	COMDAT ??_C@_0L@IGKLLFEF@Valor?5?$DN?5?$CFi@
CONST	SEGMENT
??_C@_0L@IGKLLFEF@Valor?5?$DN?5?$CFi@ DB 'Valor = %i', 00H ; `string'
CONST	ENDS
;	COMDAT ??_C@_0O@NFOCKKMG@Hello?5World?$CB?6@
CONST	SEGMENT
??_C@_0O@NFOCKKMG@Hello?5World?$CB?6@ DB 'Hello World!', 0aH, 00H ; `string'
CONST	ENDS
;	COMDAT xdata$x
xdata$x	SEGMENT
__ehfuncinfo$??1sentry@?$basic_ostream@DU?$char_traits@D@std@@@std@@QAE@XZ DD 019930522H
	DD	00H
	DD	00H
	DD	2 DUP(00H)
	DD	2 DUP(00H)
	DD	00H
	DD	05H
xdata$x	ENDS
;	COMDAT xdata$x
xdata$x	SEGMENT
__unwindtable$??0sentry@?$basic_ostream@DU?$char_traits@D@std@@@std@@QAE@AAV12@@Z DD 0ffffffffH
	DD	FLAT:__unwindfunclet$??0sentry@?$basic_ostream@DU?$char_traits@D@std@@@std@@QAE@AAV12@@Z$0
__ehfuncinfo$??0sentry@?$basic_ostream@DU?$char_traits@D@std@@@std@@QAE@AAV12@@Z DD 019930522H
	DD	01H
	DD	FLAT:__unwindtable$??0sentry@?$basic_ostream@DU?$char_traits@D@std@@@std@@QAE@AAV12@@Z
	DD	2 DUP(00H)
	DD	2 DUP(00H)
	DD	00H
	DD	01H
xdata$x	ENDS
;	COMDAT xdata$x
xdata$x	SEGMENT
__ehfuncinfo$??1_Sentry_base@?$basic_ostream@DU?$char_traits@D@std@@@std@@QAE@XZ DD 019930522H
	DD	00H
	DD	00H
	DD	2 DUP(00H)
	DD	2 DUP(00H)
	DD	00H
	DD	05H
xdata$x	ENDS
;	COMDAT xdata$x
xdata$x	SEGMENT
__catchsym$??$?6U?$char_traits@D@std@@@std@@YAAAV?$basic_ostream@DU?$char_traits@D@std@@@0@AAV10@PBD@Z$3 DD 040H
	DD	00H
	DD	00H
	DD	FLAT:__catch$??$?6U?$char_traits@D@std@@@std@@YAAAV?$basic_ostream@DU?$char_traits@D@std@@@0@AAV10@PBD@Z$0
__tryblocktable$??$?6U?$char_traits@D@std@@@std@@YAAAV?$basic_ostream@DU?$char_traits@D@std@@@0@AAV10@PBD@Z DD 01H
	DD	01H
	DD	02H
	DD	01H
	DD	FLAT:__catchsym$??$?6U?$char_traits@D@std@@@std@@YAAAV?$basic_ostream@DU?$char_traits@D@std@@@0@AAV10@PBD@Z$3
__unwindtable$??$?6U?$char_traits@D@std@@@std@@YAAAV?$basic_ostream@DU?$char_traits@D@std@@@0@AAV10@PBD@Z DD 0ffffffffH
	DD	FLAT:__unwindfunclet$??$?6U?$char_traits@D@std@@@std@@YAAAV?$basic_ostream@DU?$char_traits@D@std@@@0@AAV10@PBD@Z$2
	DD	00H
	DD	00H
	DD	00H
	DD	00H
__ehfuncinfo$??$?6U?$char_traits@D@std@@@std@@YAAAV?$basic_ostream@DU?$char_traits@D@std@@@0@AAV10@PBD@Z DD 019930522H
	DD	03H
	DD	FLAT:__unwindtable$??$?6U?$char_traits@D@std@@@std@@YAAAV?$basic_ostream@DU?$char_traits@D@std@@@0@AAV10@PBD@Z
	DD	01H
	DD	FLAT:__tryblocktable$??$?6U?$char_traits@D@std@@@std@@YAAAV?$basic_ostream@DU?$char_traits@D@std@@@0@AAV10@PBD@Z
	DD	2 DUP(00H)
	DD	00H
	DD	01H
xdata$x	ENDS
;	COMDAT xdata$x
xdata$x	SEGMENT
__ehfuncinfo$?eof@?$char_traits@D@std@@SAHXZ DD 019930522H
	DD	00H
	DD	00H
	DD	2 DUP(00H)
	DD	2 DUP(00H)
	DD	00H
	DD	05H
xdata$x	ENDS
;	COMDAT xdata$x
xdata$x	SEGMENT
__ehfuncinfo$?eq_int_type@?$char_traits@D@std@@SA_NABH0@Z DD 019930522H
	DD	00H
	DD	00H
	DD	2 DUP(00H)
	DD	2 DUP(00H)
	DD	00H
	DD	05H
xdata$x	ENDS
;	COMDAT xdata$x
xdata$x	SEGMENT
__ehfuncinfo$?length@?$char_traits@D@std@@SAIQBD@Z DD 019930522H
	DD	00H
	DD	00H
	DD	2 DUP(00H)
	DD	2 DUP(00H)
	DD	00H
	DD	05H
xdata$x	ENDS
; Function compile flags: /Odt
;	COMDAT __JustMyCode_Default
_TEXT	SEGMENT
__JustMyCode_Default PROC				; COMDAT
  00000	55		 push	 ebp
  00001	8b ec		 mov	 ebp, esp
  00003	5d		 pop	 ebp
  00004	c3		 ret	 0
__JustMyCode_Default ENDP
_TEXT	ENDS
; Function compile flags: /Odtp /RTCsu /ZI
; File c:\program files (x86)\microsoft visual studio\2017\community\vc\tools\msvc\14.16.27023\include\ostream
;	COMDAT ??Bsentry@?$basic_ostream@DU?$char_traits@D@std@@@std@@QBE_NXZ
_TEXT	SEGMENT
_this$ = -8						; size = 4
??Bsentry@?$basic_ostream@DU?$char_traits@D@std@@@std@@QBE_NXZ PROC ; std::basic_ostream<char,std::char_traits<char> >::sentry::operator bool, COMDAT
; _this$ = ecx

; 152  : 			{	// test if stream state okay

  00000	55		 push	 ebp
  00001	8b ec		 mov	 ebp, esp
  00003	81 ec cc 00 00
	00		 sub	 esp, 204		; 000000ccH
  00009	53		 push	 ebx
  0000a	56		 push	 esi
  0000b	57		 push	 edi
  0000c	51		 push	 ecx
  0000d	8d bd 34 ff ff
	ff		 lea	 edi, DWORD PTR [ebp-204]
  00013	b9 33 00 00 00	 mov	 ecx, 51			; 00000033H
  00018	b8 cc cc cc cc	 mov	 eax, -858993460		; ccccccccH
  0001d	f3 ab		 rep stosd
  0001f	59		 pop	 ecx
  00020	89 4d f8	 mov	 DWORD PTR _this$[ebp], ecx
  00023	b9 00 00 00 00	 mov	 ecx, OFFSET __375B2D08_ostream
  00028	e8 00 00 00 00	 call	 @__CheckForDebuggerJustMyCode@4

; 153  : 			return (_Ok);

  0002d	8b 45 f8	 mov	 eax, DWORD PTR _this$[ebp]
  00030	8a 40 04	 mov	 al, BYTE PTR [eax+4]

; 154  : 			}

  00033	5f		 pop	 edi
  00034	5e		 pop	 esi
  00035	5b		 pop	 ebx
  00036	81 c4 cc 00 00
	00		 add	 esp, 204		; 000000ccH
  0003c	3b ec		 cmp	 ebp, esp
  0003e	e8 00 00 00 00	 call	 __RTC_CheckEsp
  00043	8b e5		 mov	 esp, ebp
  00045	5d		 pop	 ebp
  00046	c3		 ret	 0
??Bsentry@?$basic_ostream@DU?$char_traits@D@std@@@std@@QBE_NXZ ENDP ; std::basic_ostream<char,std::char_traits<char> >::sentry::operator bool
_TEXT	ENDS
; Function compile flags: /Odtp /RTCsu /ZI
; File c:\program files (x86)\microsoft visual studio\2017\community\vc\tools\msvc\14.16.27023\include\ostream
;	COMDAT ??1sentry@?$basic_ostream@DU?$char_traits@D@std@@@std@@QAE@XZ
_TEXT	SEGMENT
_this$ = -20						; size = 4
__$EHRec$ = -12						; size = 12
??1sentry@?$basic_ostream@DU?$char_traits@D@std@@@std@@QAE@XZ PROC ; std::basic_ostream<char,std::char_traits<char> >::sentry::~sentry, COMDAT
; _this$ = ecx

; 135  : 			{	// destroy the object

  00000	55		 push	 ebp
  00001	8b ec		 mov	 ebp, esp
  00003	6a ff		 push	 -1
  00005	68 00 00 00 00	 push	 __ehhandler$??1sentry@?$basic_ostream@DU?$char_traits@D@std@@@std@@QAE@XZ
  0000a	64 a1 00 00 00
	00		 mov	 eax, DWORD PTR fs:0
  00010	50		 push	 eax
  00011	81 ec cc 00 00
	00		 sub	 esp, 204		; 000000ccH
  00017	53		 push	 ebx
  00018	56		 push	 esi
  00019	57		 push	 edi
  0001a	51		 push	 ecx
  0001b	8d bd 28 ff ff
	ff		 lea	 edi, DWORD PTR [ebp-216]
  00021	b9 33 00 00 00	 mov	 ecx, 51			; 00000033H
  00026	b8 cc cc cc cc	 mov	 eax, -858993460		; ccccccccH
  0002b	f3 ab		 rep stosd
  0002d	59		 pop	 ecx
  0002e	a1 00 00 00 00	 mov	 eax, DWORD PTR ___security_cookie
  00033	33 c5		 xor	 eax, ebp
  00035	50		 push	 eax
  00036	8d 45 f4	 lea	 eax, DWORD PTR __$EHRec$[ebp]
  00039	64 a3 00 00 00
	00		 mov	 DWORD PTR fs:0, eax
  0003f	89 4d ec	 mov	 DWORD PTR _this$[ebp], ecx
  00042	b9 00 00 00 00	 mov	 ecx, OFFSET __375B2D08_ostream
  00047	e8 00 00 00 00	 call	 @__CheckForDebuggerJustMyCode@4

; 136  :  #if _HAS_EXCEPTIONS
; 137  : 			if (!_STD uncaught_exception())	// TRANSITION, OS#15518458

  0004c	e8 00 00 00 00	 call	 ?uncaught_exception@std@@YA_NXZ ; std::uncaught_exception
  00051	0f b6 c0	 movzx	 eax, al
  00054	85 c0		 test	 eax, eax
  00056	75 14		 jne	 SHORT $LN1@sentry

; 138  : 				{
; 139  : 				this->_Myostr._Osfx();

  00058	8b f4		 mov	 esi, esp
  0005a	8b 45 ec	 mov	 eax, DWORD PTR _this$[ebp]
  0005d	8b 08		 mov	 ecx, DWORD PTR [eax]
  0005f	ff 15 00 00 00
	00		 call	 DWORD PTR __imp_?_Osfx@?$basic_ostream@DU?$char_traits@D@std@@@std@@QAEXXZ
  00065	3b f4		 cmp	 esi, esp
  00067	e8 00 00 00 00	 call	 __RTC_CheckEsp
$LN1@sentry:

; 140  : 				}
; 141  :  #else /* _HAS_EXCEPTIONS */
; 142  : 			this->_Myostr._Osfx();
; 143  :  #endif /* _HAS_EXCEPTIONS */
; 144  : 			}

  0006c	8b 4d ec	 mov	 ecx, DWORD PTR _this$[ebp]
  0006f	e8 00 00 00 00	 call	 ??1_Sentry_base@?$basic_ostream@DU?$char_traits@D@std@@@std@@QAE@XZ ; std::basic_ostream<char,std::char_traits<char> >::_Sentry_base::~_Sentry_base
  00074	8b 4d f4	 mov	 ecx, DWORD PTR __$EHRec$[ebp]
  00077	64 89 0d 00 00
	00 00		 mov	 DWORD PTR fs:0, ecx
  0007e	59		 pop	 ecx
  0007f	5f		 pop	 edi
  00080	5e		 pop	 esi
  00081	5b		 pop	 ebx
  00082	81 c4 d8 00 00
	00		 add	 esp, 216		; 000000d8H
  00088	3b ec		 cmp	 ebp, esp
  0008a	e8 00 00 00 00	 call	 __RTC_CheckEsp
  0008f	8b e5		 mov	 esp, ebp
  00091	5d		 pop	 ebp
  00092	c3		 ret	 0
_TEXT	ENDS
;	COMDAT text$x
text$x	SEGMENT
__ehhandler$??1sentry@?$basic_ostream@DU?$char_traits@D@std@@@std@@QAE@XZ:
  00000	8b 54 24 08	 mov	 edx, DWORD PTR [esp+8]
  00004	8d 42 0c	 lea	 eax, DWORD PTR [edx+12]
  00007	8b 8a 24 ff ff
	ff		 mov	 ecx, DWORD PTR [edx-220]
  0000d	33 c8		 xor	 ecx, eax
  0000f	e8 00 00 00 00	 call	 @__security_check_cookie@4
  00014	b8 00 00 00 00	 mov	 eax, OFFSET __ehfuncinfo$??1sentry@?$basic_ostream@DU?$char_traits@D@std@@@std@@QAE@XZ
  00019	e9 00 00 00 00	 jmp	 ___CxxFrameHandler3
text$x	ENDS
??1sentry@?$basic_ostream@DU?$char_traits@D@std@@@std@@QAE@XZ ENDP ; std::basic_ostream<char,std::char_traits<char> >::sentry::~sentry
; Function compile flags: /Odtp /RTCsu /ZI
; File c:\program files (x86)\microsoft visual studio\2017\community\vc\tools\msvc\14.16.27023\include\ostream
;	COMDAT ??0sentry@?$basic_ostream@DU?$char_traits@D@std@@@std@@QAE@AAV12@@Z
_TEXT	SEGMENT
_this$ = -20						; size = 4
__$EHRec$ = -12						; size = 12
__Ostr$ = 8						; size = 4
??0sentry@?$basic_ostream@DU?$char_traits@D@std@@@std@@QAE@AAV12@@Z PROC ; std::basic_ostream<char,std::char_traits<char> >::sentry::sentry, COMDAT
; _this$ = ecx

; 121  : 			{	// construct locking and testing stream

  00000	55		 push	 ebp
  00001	8b ec		 mov	 ebp, esp
  00003	6a ff		 push	 -1
  00005	68 00 00 00 00	 push	 __ehhandler$??0sentry@?$basic_ostream@DU?$char_traits@D@std@@@std@@QAE@AAV12@@Z
  0000a	64 a1 00 00 00
	00		 mov	 eax, DWORD PTR fs:0
  00010	50		 push	 eax
  00011	81 ec cc 00 00
	00		 sub	 esp, 204		; 000000ccH
  00017	53		 push	 ebx
  00018	56		 push	 esi
  00019	57		 push	 edi
  0001a	51		 push	 ecx
  0001b	8d bd 28 ff ff
	ff		 lea	 edi, DWORD PTR [ebp-216]
  00021	b9 33 00 00 00	 mov	 ecx, 51			; 00000033H
  00026	b8 cc cc cc cc	 mov	 eax, -858993460		; ccccccccH
  0002b	f3 ab		 rep stosd
  0002d	59		 pop	 ecx
  0002e	a1 00 00 00 00	 mov	 eax, DWORD PTR ___security_cookie
  00033	33 c5		 xor	 eax, ebp
  00035	50		 push	 eax
  00036	8d 45 f4	 lea	 eax, DWORD PTR __$EHRec$[ebp]
  00039	64 a3 00 00 00
	00		 mov	 DWORD PTR fs:0, eax
  0003f	89 4d ec	 mov	 DWORD PTR _this$[ebp], ecx
  00042	b9 00 00 00 00	 mov	 ecx, OFFSET __375B2D08_ostream
  00047	e8 00 00 00 00	 call	 @__CheckForDebuggerJustMyCode@4

; 120  : 			: _Sentry_base(_Ostr)

  0004c	8b 45 08	 mov	 eax, DWORD PTR __Ostr$[ebp]
  0004f	50		 push	 eax
  00050	8b 4d ec	 mov	 ecx, DWORD PTR _this$[ebp]
  00053	e8 00 00 00 00	 call	 ??0_Sentry_base@?$basic_ostream@DU?$char_traits@D@std@@@std@@QAE@AAV12@@Z ; std::basic_ostream<char,std::char_traits<char> >::_Sentry_base::_Sentry_base
  00058	c7 45 fc 00 00
	00 00		 mov	 DWORD PTR __$EHRec$[ebp+8], 0

; 122  : 			if (_Ostr.good() && _Ostr.tie() != nullptr && _Ostr.tie() != &_Ostr)

  0005f	8b 45 08	 mov	 eax, DWORD PTR __Ostr$[ebp]
  00062	8b 08		 mov	 ecx, DWORD PTR [eax]
  00064	8b 55 08	 mov	 edx, DWORD PTR __Ostr$[ebp]
  00067	03 51 04	 add	 edx, DWORD PTR [ecx+4]
  0006a	8b f4		 mov	 esi, esp
  0006c	8b ca		 mov	 ecx, edx
  0006e	ff 15 00 00 00
	00		 call	 DWORD PTR __imp_?good@ios_base@std@@QBE_NXZ
  00074	3b f4		 cmp	 esi, esp
  00076	e8 00 00 00 00	 call	 __RTC_CheckEsp
  0007b	0f b6 c0	 movzx	 eax, al
  0007e	85 c0		 test	 eax, eax
  00080	74 6e		 je	 SHORT $LN2@sentry
  00082	8b 45 08	 mov	 eax, DWORD PTR __Ostr$[ebp]
  00085	8b 08		 mov	 ecx, DWORD PTR [eax]
  00087	8b 55 08	 mov	 edx, DWORD PTR __Ostr$[ebp]
  0008a	03 51 04	 add	 edx, DWORD PTR [ecx+4]
  0008d	8b f4		 mov	 esi, esp
  0008f	8b ca		 mov	 ecx, edx
  00091	ff 15 00 00 00
	00		 call	 DWORD PTR __imp_?tie@?$basic_ios@DU?$char_traits@D@std@@@std@@QBEPAV?$basic_ostream@DU?$char_traits@D@std@@@2@XZ
  00097	3b f4		 cmp	 esi, esp
  00099	e8 00 00 00 00	 call	 __RTC_CheckEsp
  0009e	85 c0		 test	 eax, eax
  000a0	74 4e		 je	 SHORT $LN2@sentry
  000a2	8b 45 08	 mov	 eax, DWORD PTR __Ostr$[ebp]
  000a5	8b 08		 mov	 ecx, DWORD PTR [eax]
  000a7	8b 55 08	 mov	 edx, DWORD PTR __Ostr$[ebp]
  000aa	03 51 04	 add	 edx, DWORD PTR [ecx+4]
  000ad	8b f4		 mov	 esi, esp
  000af	8b ca		 mov	 ecx, edx
  000b1	ff 15 00 00 00
	00		 call	 DWORD PTR __imp_?tie@?$basic_ios@DU?$char_traits@D@std@@@std@@QBEPAV?$basic_ostream@DU?$char_traits@D@std@@@2@XZ
  000b7	3b f4		 cmp	 esi, esp
  000b9	e8 00 00 00 00	 call	 __RTC_CheckEsp
  000be	3b 45 08	 cmp	 eax, DWORD PTR __Ostr$[ebp]
  000c1	74 2d		 je	 SHORT $LN2@sentry

; 123  : 				_Ostr.tie()->flush();

  000c3	8b 45 08	 mov	 eax, DWORD PTR __Ostr$[ebp]
  000c6	8b 08		 mov	 ecx, DWORD PTR [eax]
  000c8	8b 55 08	 mov	 edx, DWORD PTR __Ostr$[ebp]
  000cb	03 51 04	 add	 edx, DWORD PTR [ecx+4]
  000ce	8b f4		 mov	 esi, esp
  000d0	8b ca		 mov	 ecx, edx
  000d2	ff 15 00 00 00
	00		 call	 DWORD PTR __imp_?tie@?$basic_ios@DU?$char_traits@D@std@@@std@@QBEPAV?$basic_ostream@DU?$char_traits@D@std@@@2@XZ
  000d8	3b f4		 cmp	 esi, esp
  000da	e8 00 00 00 00	 call	 __RTC_CheckEsp
  000df	8b f4		 mov	 esi, esp
  000e1	8b c8		 mov	 ecx, eax
  000e3	ff 15 00 00 00
	00		 call	 DWORD PTR __imp_?flush@?$basic_ostream@DU?$char_traits@D@std@@@std@@QAEAAV12@XZ
  000e9	3b f4		 cmp	 esi, esp
  000eb	e8 00 00 00 00	 call	 __RTC_CheckEsp
$LN2@sentry:

; 124  : 			_Ok = _Ostr.good();	// store test only after flushing tie

  000f0	8b 45 08	 mov	 eax, DWORD PTR __Ostr$[ebp]
  000f3	8b 08		 mov	 ecx, DWORD PTR [eax]
  000f5	8b 55 08	 mov	 edx, DWORD PTR __Ostr$[ebp]
  000f8	03 51 04	 add	 edx, DWORD PTR [ecx+4]
  000fb	8b f4		 mov	 esi, esp
  000fd	8b ca		 mov	 ecx, edx
  000ff	ff 15 00 00 00
	00		 call	 DWORD PTR __imp_?good@ios_base@std@@QBE_NXZ
  00105	3b f4		 cmp	 esi, esp
  00107	e8 00 00 00 00	 call	 __RTC_CheckEsp
  0010c	8b 4d ec	 mov	 ecx, DWORD PTR _this$[ebp]
  0010f	88 41 04	 mov	 BYTE PTR [ecx+4], al

; 125  : 			}

  00112	c7 45 fc ff ff
	ff ff		 mov	 DWORD PTR __$EHRec$[ebp+8], -1
  00119	8b 45 ec	 mov	 eax, DWORD PTR _this$[ebp]
  0011c	8b 4d f4	 mov	 ecx, DWORD PTR __$EHRec$[ebp]
  0011f	64 89 0d 00 00
	00 00		 mov	 DWORD PTR fs:0, ecx
  00126	59		 pop	 ecx
  00127	5f		 pop	 edi
  00128	5e		 pop	 esi
  00129	5b		 pop	 ebx
  0012a	81 c4 d8 00 00
	00		 add	 esp, 216		; 000000d8H
  00130	3b ec		 cmp	 ebp, esp
  00132	e8 00 00 00 00	 call	 __RTC_CheckEsp
  00137	8b e5		 mov	 esp, ebp
  00139	5d		 pop	 ebp
  0013a	c2 04 00	 ret	 4
_TEXT	ENDS
;	COMDAT text$x
text$x	SEGMENT
__unwindfunclet$??0sentry@?$basic_ostream@DU?$char_traits@D@std@@@std@@QAE@AAV12@@Z$0:
  00000	8b 4d ec	 mov	 ecx, DWORD PTR _this$[ebp]
  00003	e9 00 00 00 00	 jmp	 ??1_Sentry_base@?$basic_ostream@DU?$char_traits@D@std@@@std@@QAE@XZ ; std::basic_ostream<char,std::char_traits<char> >::_Sentry_base::~_Sentry_base
__ehhandler$??0sentry@?$basic_ostream@DU?$char_traits@D@std@@@std@@QAE@AAV12@@Z:
  00008	8b 54 24 08	 mov	 edx, DWORD PTR [esp+8]
  0000c	8d 42 0c	 lea	 eax, DWORD PTR [edx+12]
  0000f	8b 8a 24 ff ff
	ff		 mov	 ecx, DWORD PTR [edx-220]
  00015	33 c8		 xor	 ecx, eax
  00017	e8 00 00 00 00	 call	 @__security_check_cookie@4
  0001c	b8 00 00 00 00	 mov	 eax, OFFSET __ehfuncinfo$??0sentry@?$basic_ostream@DU?$char_traits@D@std@@@std@@QAE@AAV12@@Z
  00021	e9 00 00 00 00	 jmp	 ___CxxFrameHandler3
text$x	ENDS
??0sentry@?$basic_ostream@DU?$char_traits@D@std@@@std@@QAE@AAV12@@Z ENDP ; std::basic_ostream<char,std::char_traits<char> >::sentry::sentry
; Function compile flags: /Odtp /RTCsu /ZI
; File c:\program files (x86)\microsoft visual studio\2017\community\vc\tools\msvc\14.16.27023\include\ostream
;	COMDAT ??1_Sentry_base@?$basic_ostream@DU?$char_traits@D@std@@@std@@QAE@XZ
_TEXT	SEGMENT
tv92 = -224						; size = 4
tv86 = -220						; size = 4
tv72 = -220						; size = 4
_this$ = -20						; size = 4
__$EHRec$ = -12						; size = 12
??1_Sentry_base@?$basic_ostream@DU?$char_traits@D@std@@@std@@QAE@XZ PROC ; std::basic_ostream<char,std::char_traits<char> >::_Sentry_base::~_Sentry_base, COMDAT
; _this$ = ecx

; 105  : 			{	// destroy after unlocking

  00000	55		 push	 ebp
  00001	8b ec		 mov	 ebp, esp
  00003	6a ff		 push	 -1
  00005	68 00 00 00 00	 push	 __ehhandler$??1_Sentry_base@?$basic_ostream@DU?$char_traits@D@std@@@std@@QAE@XZ
  0000a	64 a1 00 00 00
	00		 mov	 eax, DWORD PTR fs:0
  00010	50		 push	 eax
  00011	81 ec d4 00 00
	00		 sub	 esp, 212		; 000000d4H
  00017	53		 push	 ebx
  00018	56		 push	 esi
  00019	57		 push	 edi
  0001a	51		 push	 ecx
  0001b	8d bd 20 ff ff
	ff		 lea	 edi, DWORD PTR [ebp-224]
  00021	b9 35 00 00 00	 mov	 ecx, 53			; 00000035H
  00026	b8 cc cc cc cc	 mov	 eax, -858993460		; ccccccccH
  0002b	f3 ab		 rep stosd
  0002d	59		 pop	 ecx
  0002e	a1 00 00 00 00	 mov	 eax, DWORD PTR ___security_cookie
  00033	33 c5		 xor	 eax, ebp
  00035	50		 push	 eax
  00036	8d 45 f4	 lea	 eax, DWORD PTR __$EHRec$[ebp]
  00039	64 a3 00 00 00
	00		 mov	 DWORD PTR fs:0, eax
  0003f	89 4d ec	 mov	 DWORD PTR _this$[ebp], ecx
  00042	b9 00 00 00 00	 mov	 ecx, OFFSET __375B2D08_ostream
  00047	e8 00 00 00 00	 call	 @__CheckForDebuggerJustMyCode@4

; 106  : 			if (_Myostr.rdbuf() != nullptr)

  0004c	8b 45 ec	 mov	 eax, DWORD PTR _this$[ebp]
  0004f	8b 08		 mov	 ecx, DWORD PTR [eax]
  00051	89 8d 24 ff ff
	ff		 mov	 DWORD PTR tv72[ebp], ecx
  00057	8b 95 24 ff ff
	ff		 mov	 edx, DWORD PTR tv72[ebp]
  0005d	8b 02		 mov	 eax, DWORD PTR [edx]
  0005f	8b 8d 24 ff ff
	ff		 mov	 ecx, DWORD PTR tv72[ebp]
  00065	03 48 04	 add	 ecx, DWORD PTR [eax+4]
  00068	8b f4		 mov	 esi, esp
  0006a	ff 15 00 00 00
	00		 call	 DWORD PTR __imp_?rdbuf@?$basic_ios@DU?$char_traits@D@std@@@std@@QBEPAV?$basic_streambuf@DU?$char_traits@D@std@@@2@XZ
  00070	3b f4		 cmp	 esi, esp
  00072	e8 00 00 00 00	 call	 __RTC_CheckEsp
  00077	85 c0		 test	 eax, eax
  00079	74 4d		 je	 SHORT $LN3@Sentry_bas

; 107  : 				_Myostr.rdbuf()->_Unlock();

  0007b	8b 45 ec	 mov	 eax, DWORD PTR _this$[ebp]
  0007e	8b 08		 mov	 ecx, DWORD PTR [eax]
  00080	89 8d 24 ff ff
	ff		 mov	 DWORD PTR tv86[ebp], ecx
  00086	8b 95 24 ff ff
	ff		 mov	 edx, DWORD PTR tv86[ebp]
  0008c	8b 02		 mov	 eax, DWORD PTR [edx]
  0008e	8b 8d 24 ff ff
	ff		 mov	 ecx, DWORD PTR tv86[ebp]
  00094	03 48 04	 add	 ecx, DWORD PTR [eax+4]
  00097	8b f4		 mov	 esi, esp
  00099	ff 15 00 00 00
	00		 call	 DWORD PTR __imp_?rdbuf@?$basic_ios@DU?$char_traits@D@std@@@std@@QBEPAV?$basic_streambuf@DU?$char_traits@D@std@@@2@XZ
  0009f	3b f4		 cmp	 esi, esp
  000a1	e8 00 00 00 00	 call	 __RTC_CheckEsp
  000a6	89 85 20 ff ff
	ff		 mov	 DWORD PTR tv92[ebp], eax
  000ac	8b 8d 20 ff ff
	ff		 mov	 ecx, DWORD PTR tv92[ebp]
  000b2	8b 11		 mov	 edx, DWORD PTR [ecx]
  000b4	8b f4		 mov	 esi, esp
  000b6	8b 8d 20 ff ff
	ff		 mov	 ecx, DWORD PTR tv92[ebp]
  000bc	8b 42 08	 mov	 eax, DWORD PTR [edx+8]
  000bf	ff d0		 call	 eax
  000c1	3b f4		 cmp	 esi, esp
  000c3	e8 00 00 00 00	 call	 __RTC_CheckEsp
$LN3@Sentry_bas:

; 108  : 			}

  000c8	8b 4d f4	 mov	 ecx, DWORD PTR __$EHRec$[ebp]
  000cb	64 89 0d 00 00
	00 00		 mov	 DWORD PTR fs:0, ecx
  000d2	59		 pop	 ecx
  000d3	5f		 pop	 edi
  000d4	5e		 pop	 esi
  000d5	5b		 pop	 ebx
  000d6	81 c4 e0 00 00
	00		 add	 esp, 224		; 000000e0H
  000dc	3b ec		 cmp	 ebp, esp
  000de	e8 00 00 00 00	 call	 __RTC_CheckEsp
  000e3	8b e5		 mov	 esp, ebp
  000e5	5d		 pop	 ebp
  000e6	c3		 ret	 0
_TEXT	ENDS
;	COMDAT text$x
text$x	SEGMENT
__ehhandler$??1_Sentry_base@?$basic_ostream@DU?$char_traits@D@std@@@std@@QAE@XZ:
  00000	8b 54 24 08	 mov	 edx, DWORD PTR [esp+8]
  00004	8d 42 0c	 lea	 eax, DWORD PTR [edx+12]
  00007	8b 8a 1c ff ff
	ff		 mov	 ecx, DWORD PTR [edx-228]
  0000d	33 c8		 xor	 ecx, eax
  0000f	e8 00 00 00 00	 call	 @__security_check_cookie@4
  00014	b8 00 00 00 00	 mov	 eax, OFFSET __ehfuncinfo$??1_Sentry_base@?$basic_ostream@DU?$char_traits@D@std@@@std@@QAE@XZ
  00019	e9 00 00 00 00	 jmp	 ___CxxFrameHandler3
text$x	ENDS
??1_Sentry_base@?$basic_ostream@DU?$char_traits@D@std@@@std@@QAE@XZ ENDP ; std::basic_ostream<char,std::char_traits<char> >::_Sentry_base::~_Sentry_base
; Function compile flags: /Odtp /RTCsu /ZI
; File c:\program files (x86)\microsoft visual studio\2017\community\vc\tools\msvc\14.16.27023\include\ostream
;	COMDAT ??0_Sentry_base@?$basic_ostream@DU?$char_traits@D@std@@@std@@QAE@AAV12@@Z
_TEXT	SEGMENT
tv93 = -212						; size = 4
tv87 = -208						; size = 4
tv73 = -208						; size = 4
_this$ = -8						; size = 4
__Ostr$ = 8						; size = 4
??0_Sentry_base@?$basic_ostream@DU?$char_traits@D@std@@@std@@QAE@AAV12@@Z PROC ; std::basic_ostream<char,std::char_traits<char> >::_Sentry_base::_Sentry_base, COMDAT
; _this$ = ecx

; 99   : 			{	// lock the stream buffer, if there

  00000	55		 push	 ebp
  00001	8b ec		 mov	 ebp, esp
  00003	81 ec d4 00 00
	00		 sub	 esp, 212		; 000000d4H
  00009	53		 push	 ebx
  0000a	56		 push	 esi
  0000b	57		 push	 edi
  0000c	51		 push	 ecx
  0000d	8d bd 2c ff ff
	ff		 lea	 edi, DWORD PTR [ebp-212]
  00013	b9 35 00 00 00	 mov	 ecx, 53			; 00000035H
  00018	b8 cc cc cc cc	 mov	 eax, -858993460		; ccccccccH
  0001d	f3 ab		 rep stosd
  0001f	59		 pop	 ecx
  00020	89 4d f8	 mov	 DWORD PTR _this$[ebp], ecx
  00023	b9 00 00 00 00	 mov	 ecx, OFFSET __375B2D08_ostream
  00028	e8 00 00 00 00	 call	 @__CheckForDebuggerJustMyCode@4

; 98   : 			: _Myostr(_Ostr)

  0002d	8b 45 f8	 mov	 eax, DWORD PTR _this$[ebp]
  00030	8b 4d 08	 mov	 ecx, DWORD PTR __Ostr$[ebp]
  00033	89 08		 mov	 DWORD PTR [eax], ecx

; 100  : 			if (_Myostr.rdbuf() != nullptr)

  00035	8b 45 f8	 mov	 eax, DWORD PTR _this$[ebp]
  00038	8b 08		 mov	 ecx, DWORD PTR [eax]
  0003a	89 8d 30 ff ff
	ff		 mov	 DWORD PTR tv73[ebp], ecx
  00040	8b 95 30 ff ff
	ff		 mov	 edx, DWORD PTR tv73[ebp]
  00046	8b 02		 mov	 eax, DWORD PTR [edx]
  00048	8b 8d 30 ff ff
	ff		 mov	 ecx, DWORD PTR tv73[ebp]
  0004e	03 48 04	 add	 ecx, DWORD PTR [eax+4]
  00051	8b f4		 mov	 esi, esp
  00053	ff 15 00 00 00
	00		 call	 DWORD PTR __imp_?rdbuf@?$basic_ios@DU?$char_traits@D@std@@@std@@QBEPAV?$basic_streambuf@DU?$char_traits@D@std@@@2@XZ
  00059	3b f4		 cmp	 esi, esp
  0005b	e8 00 00 00 00	 call	 __RTC_CheckEsp
  00060	85 c0		 test	 eax, eax
  00062	74 4d		 je	 SHORT $LN1@Sentry_bas

; 101  : 				_Myostr.rdbuf()->_Lock();

  00064	8b 45 f8	 mov	 eax, DWORD PTR _this$[ebp]
  00067	8b 08		 mov	 ecx, DWORD PTR [eax]
  00069	89 8d 30 ff ff
	ff		 mov	 DWORD PTR tv87[ebp], ecx
  0006f	8b 95 30 ff ff
	ff		 mov	 edx, DWORD PTR tv87[ebp]
  00075	8b 02		 mov	 eax, DWORD PTR [edx]
  00077	8b 8d 30 ff ff
	ff		 mov	 ecx, DWORD PTR tv87[ebp]
  0007d	03 48 04	 add	 ecx, DWORD PTR [eax+4]
  00080	8b f4		 mov	 esi, esp
  00082	ff 15 00 00 00
	00		 call	 DWORD PTR __imp_?rdbuf@?$basic_ios@DU?$char_traits@D@std@@@std@@QBEPAV?$basic_streambuf@DU?$char_traits@D@std@@@2@XZ
  00088	3b f4		 cmp	 esi, esp
  0008a	e8 00 00 00 00	 call	 __RTC_CheckEsp
  0008f	89 85 2c ff ff
	ff		 mov	 DWORD PTR tv93[ebp], eax
  00095	8b 8d 2c ff ff
	ff		 mov	 ecx, DWORD PTR tv93[ebp]
  0009b	8b 11		 mov	 edx, DWORD PTR [ecx]
  0009d	8b f4		 mov	 esi, esp
  0009f	8b 8d 2c ff ff
	ff		 mov	 ecx, DWORD PTR tv93[ebp]
  000a5	8b 42 04	 mov	 eax, DWORD PTR [edx+4]
  000a8	ff d0		 call	 eax
  000aa	3b f4		 cmp	 esi, esp
  000ac	e8 00 00 00 00	 call	 __RTC_CheckEsp
$LN1@Sentry_bas:

; 102  : 			}

  000b1	8b 45 f8	 mov	 eax, DWORD PTR _this$[ebp]
  000b4	5f		 pop	 edi
  000b5	5e		 pop	 esi
  000b6	5b		 pop	 ebx
  000b7	81 c4 d4 00 00
	00		 add	 esp, 212		; 000000d4H
  000bd	3b ec		 cmp	 ebp, esp
  000bf	e8 00 00 00 00	 call	 __RTC_CheckEsp
  000c4	8b e5		 mov	 esp, ebp
  000c6	5d		 pop	 ebp
  000c7	c2 04 00	 ret	 4
??0_Sentry_base@?$basic_ostream@DU?$char_traits@D@std@@@std@@QAE@AAV12@@Z ENDP ; std::basic_ostream<char,std::char_traits<char> >::_Sentry_base::_Sentry_base
_TEXT	ENDS
; Function compile flags: /Odtp /RTCsu /ZI
; File c:\program files (x86)\microsoft visual studio\2017\community\vc\tools\msvc\14.16.27023\include\ostream
;	COMDAT ??$?6U?$char_traits@D@std@@@std@@YAAAV?$basic_ostream@DU?$char_traits@D@std@@@0@AAV10@PBD@Z
_TEXT	SEGMENT
tv135 = -356						; size = 8
tv343 = -348						; size = 8
tv291 = -344						; size = 4
tv288 = -344						; size = 8
tv286 = -344						; size = 4
tv329 = -340						; size = 8
tv290 = -340						; size = 4
tv285 = -340						; size = 4
tv287 = -336						; size = 4
tv137 = -336						; size = 4
tv289 = -333						; size = 1
tv284 = -333						; size = 1
$T2 = -328						; size = 4
$T3 = -316						; size = 4
$T4 = -304						; size = 4
$T5 = -292						; size = 4
$T6 = -280						; size = 4
__Ok$ = -76						; size = 8
__Pad$ = -60						; size = 8
__Count$ = -44						; size = 8
__State$ = -28						; size = 4
__$ArrayPad$ = -20					; size = 4
__$EHRec$ = -16						; size = 16
__Ostr$ = 8						; size = 4
__Val$ = 12						; size = 4
??$?6U?$char_traits@D@std@@@std@@YAAAV?$basic_ostream@DU?$char_traits@D@std@@@0@AAV10@PBD@Z PROC ; std::operator<<<std::char_traits<char> >, COMDAT

; 790  : 	{	// insert NTBS into char stream

  00000	55		 push	 ebp
  00001	8b ec		 mov	 ebp, esp
  00003	6a ff		 push	 -1
  00005	68 00 00 00 00	 push	 __ehhandler$??$?6U?$char_traits@D@std@@@std@@YAAAV?$basic_ostream@DU?$char_traits@D@std@@@0@AAV10@PBD@Z
  0000a	64 a1 00 00 00
	00		 mov	 eax, DWORD PTR fs:0
  00010	50		 push	 eax
  00011	51		 push	 ecx
  00012	81 ec 54 01 00
	00		 sub	 esp, 340		; 00000154H
  00018	53		 push	 ebx
  00019	56		 push	 esi
  0001a	57		 push	 edi
  0001b	8d bd 9c fe ff
	ff		 lea	 edi, DWORD PTR [ebp-356]
  00021	b9 55 00 00 00	 mov	 ecx, 85			; 00000055H
  00026	b8 cc cc cc cc	 mov	 eax, -858993460		; ccccccccH
  0002b	f3 ab		 rep stosd
  0002d	a1 00 00 00 00	 mov	 eax, DWORD PTR ___security_cookie
  00032	33 c5		 xor	 eax, ebp
  00034	89 45 ec	 mov	 DWORD PTR __$ArrayPad$[ebp], eax
  00037	50		 push	 eax
  00038	8d 45 f4	 lea	 eax, DWORD PTR __$EHRec$[ebp+4]
  0003b	64 a3 00 00 00
	00		 mov	 DWORD PTR fs:0, eax
  00041	89 65 f0	 mov	 DWORD PTR __$EHRec$[ebp], esp
  00044	b9 00 00 00 00	 mov	 ecx, OFFSET __375B2D08_ostream
  00049	e8 00 00 00 00	 call	 @__CheckForDebuggerJustMyCode@4

; 791  : 	typedef char _Elem;
; 792  : 	typedef basic_ostream<_Elem, _Traits> _Myos;
; 793  : 	ios_base::iostate _State = ios_base::goodbit;

  0004e	c7 45 e4 00 00
	00 00		 mov	 DWORD PTR __State$[ebp], 0

; 794  : 	streamsize _Count = (streamsize)_Traits::length(_Val);	// may overflow

  00055	8b 45 0c	 mov	 eax, DWORD PTR __Val$[ebp]
  00058	50		 push	 eax
  00059	e8 00 00 00 00	 call	 ?length@?$char_traits@D@std@@SAIQBD@Z ; std::char_traits<char>::length
  0005e	83 c4 04	 add	 esp, 4
  00061	33 c9		 xor	 ecx, ecx
  00063	89 45 d4	 mov	 DWORD PTR __Count$[ebp], eax
  00066	89 4d d8	 mov	 DWORD PTR __Count$[ebp+4], ecx

; 795  : 	streamsize _Pad = _Ostr.width() <= 0 || _Ostr.width() <= _Count

  00069	8b 45 08	 mov	 eax, DWORD PTR __Ostr$[ebp]
  0006c	8b 08		 mov	 ecx, DWORD PTR [eax]
  0006e	8b 55 08	 mov	 edx, DWORD PTR __Ostr$[ebp]
  00071	03 51 04	 add	 edx, DWORD PTR [ecx+4]
  00074	8b f4		 mov	 esi, esp
  00076	8b ca		 mov	 ecx, edx
  00078	ff 15 00 00 00
	00		 call	 DWORD PTR __imp_?width@ios_base@std@@QBE_JXZ
  0007e	3b f4		 cmp	 esi, esp
  00080	e8 00 00 00 00	 call	 __RTC_CheckEsp
  00085	89 85 ac fe ff
	ff		 mov	 DWORD PTR tv329[ebp], eax
  0008b	89 95 b0 fe ff
	ff		 mov	 DWORD PTR tv329[ebp+4], edx
  00091	83 bd b0 fe ff
	ff 00		 cmp	 DWORD PTR tv329[ebp+4], 0
  00098	7c 79		 jl	 SHORT $LN17@operator
  0009a	7f 09		 jg	 SHORT $LN24@operator
  0009c	83 bd ac fe ff
	ff 00		 cmp	 DWORD PTR tv329[ebp], 0
  000a3	76 6e		 jbe	 SHORT $LN17@operator
$LN24@operator:
  000a5	8b 45 08	 mov	 eax, DWORD PTR __Ostr$[ebp]
  000a8	8b 08		 mov	 ecx, DWORD PTR [eax]
  000aa	8b 55 08	 mov	 edx, DWORD PTR __Ostr$[ebp]
  000ad	03 51 04	 add	 edx, DWORD PTR [ecx+4]
  000b0	8b f4		 mov	 esi, esp
  000b2	8b ca		 mov	 ecx, edx
  000b4	ff 15 00 00 00
	00		 call	 DWORD PTR __imp_?width@ios_base@std@@QBE_JXZ
  000ba	3b f4		 cmp	 esi, esp
  000bc	e8 00 00 00 00	 call	 __RTC_CheckEsp
  000c1	89 85 a4 fe ff
	ff		 mov	 DWORD PTR tv343[ebp], eax
  000c7	89 95 a8 fe ff
	ff		 mov	 DWORD PTR tv343[ebp+4], edx
  000cd	8b 85 a8 fe ff
	ff		 mov	 eax, DWORD PTR tv343[ebp+4]
  000d3	3b 45 d8	 cmp	 eax, DWORD PTR __Count$[ebp+4]
  000d6	7c 3b		 jl	 SHORT $LN17@operator
  000d8	7f 0b		 jg	 SHORT $LN25@operator
  000da	8b 8d a4 fe ff
	ff		 mov	 ecx, DWORD PTR tv343[ebp]
  000e0	3b 4d d4	 cmp	 ecx, DWORD PTR __Count$[ebp]
  000e3	76 2e		 jbe	 SHORT $LN17@operator
$LN25@operator:
  000e5	8b 55 08	 mov	 edx, DWORD PTR __Ostr$[ebp]
  000e8	8b 02		 mov	 eax, DWORD PTR [edx]
  000ea	8b 4d 08	 mov	 ecx, DWORD PTR __Ostr$[ebp]
  000ed	03 48 04	 add	 ecx, DWORD PTR [eax+4]
  000f0	8b f4		 mov	 esi, esp
  000f2	ff 15 00 00 00
	00		 call	 DWORD PTR __imp_?width@ios_base@std@@QBE_JXZ
  000f8	3b f4		 cmp	 esi, esp
  000fa	e8 00 00 00 00	 call	 __RTC_CheckEsp
  000ff	2b 45 d4	 sub	 eax, DWORD PTR __Count$[ebp]
  00102	1b 55 d8	 sbb	 edx, DWORD PTR __Count$[ebp+4]
  00105	89 85 9c fe ff
	ff		 mov	 DWORD PTR tv135[ebp], eax
  0010b	89 95 a0 fe ff
	ff		 mov	 DWORD PTR tv135[ebp+4], edx
  00111	eb 0b		 jmp	 SHORT $LN18@operator
$LN17@operator:
  00113	0f 57 c0	 xorps	 xmm0, xmm0
  00116	66 0f 13 85 9c
	fe ff ff	 movlpd	 QWORD PTR tv135[ebp], xmm0
$LN18@operator:
  0011e	8b 8d 9c fe ff
	ff		 mov	 ecx, DWORD PTR tv135[ebp]
  00124	89 4d c4	 mov	 DWORD PTR __Pad$[ebp], ecx
  00127	8b 95 a0 fe ff
	ff		 mov	 edx, DWORD PTR tv135[ebp+4]
  0012d	89 55 c8	 mov	 DWORD PTR __Pad$[ebp+4], edx

; 796  : 		? 0 : _Ostr.width() - _Count;
; 797  : 	const typename _Myos::sentry _Ok(_Ostr);

  00130	8b 45 08	 mov	 eax, DWORD PTR __Ostr$[ebp]
  00133	50		 push	 eax
  00134	8d 4d b4	 lea	 ecx, DWORD PTR __Ok$[ebp]
  00137	e8 00 00 00 00	 call	 ??0sentry@?$basic_ostream@DU?$char_traits@D@std@@@std@@QAE@AAV12@@Z ; std::basic_ostream<char,std::char_traits<char> >::sentry::sentry
  0013c	c7 45 fc 00 00
	00 00		 mov	 DWORD PTR __$EHRec$[ebp+12], 0

; 798  : 
; 799  : 	if (!_Ok)

  00143	8d 4d b4	 lea	 ecx, DWORD PTR __Ok$[ebp]
  00146	e8 00 00 00 00	 call	 ??Bsentry@?$basic_ostream@DU?$char_traits@D@std@@@std@@QBE_NXZ ; std::basic_ostream<char,std::char_traits<char> >::sentry::operator bool
  0014b	0f b6 c0	 movzx	 eax, al
  0014e	85 c0		 test	 eax, eax
  00150	75 0e		 jne	 SHORT $LN8@operator

; 800  : 		_State |= ios_base::badbit;

  00152	8b 45 e4	 mov	 eax, DWORD PTR __State$[ebp]
  00155	83 c8 04	 or	 eax, 4
  00158	89 45 e4	 mov	 DWORD PTR __State$[ebp], eax

; 801  : 	else

  0015b	e9 ba 02 00 00	 jmp	 $LN9@operator
$LN8@operator:

; 802  : 		{	// state okay, insert
; 803  : 		_TRY_IO_BEGIN

  00160	c6 45 fc 01	 mov	 BYTE PTR __$EHRec$[ebp+12], 1

; 804  : 		if ((_Ostr.flags() & ios_base::adjustfield) != ios_base::left)

  00164	8b 45 08	 mov	 eax, DWORD PTR __Ostr$[ebp]
  00167	8b 08		 mov	 ecx, DWORD PTR [eax]
  00169	8b 55 08	 mov	 edx, DWORD PTR __Ostr$[ebp]
  0016c	03 51 04	 add	 edx, DWORD PTR [ecx+4]
  0016f	8b f4		 mov	 esi, esp
  00171	8b ca		 mov	 ecx, edx
  00173	ff 15 00 00 00
	00		 call	 DWORD PTR __imp_?flags@ios_base@std@@QBEHXZ
  00179	3b f4		 cmp	 esi, esp
  0017b	e8 00 00 00 00	 call	 __RTC_CheckEsp
  00180	89 85 b0 fe ff
	ff		 mov	 DWORD PTR tv137[ebp], eax
  00186	8b 85 b0 fe ff
	ff		 mov	 eax, DWORD PTR tv137[ebp]
  0018c	25 c0 01 00 00	 and	 eax, 448		; 000001c0H
  00191	83 f8 40	 cmp	 eax, 64			; 00000040H
  00194	0f 84 d5 00 00
	00		 je	 $LN11@operator

; 805  : 			for (; 0 < _Pad; --_Pad)	// pad on left

  0019a	eb 12		 jmp	 SHORT $LN4@operator
$LN2@operator:
  0019c	8b 45 c4	 mov	 eax, DWORD PTR __Pad$[ebp]
  0019f	83 e8 01	 sub	 eax, 1
  001a2	8b 4d c8	 mov	 ecx, DWORD PTR __Pad$[ebp+4]
  001a5	83 d9 00	 sbb	 ecx, 0
  001a8	89 45 c4	 mov	 DWORD PTR __Pad$[ebp], eax
  001ab	89 4d c8	 mov	 DWORD PTR __Pad$[ebp+4], ecx
$LN4@operator:
  001ae	83 7d c8 00	 cmp	 DWORD PTR __Pad$[ebp+4], 0
  001b2	0f 8c b7 00 00
	00		 jl	 $LN11@operator
  001b8	7f 0a		 jg	 SHORT $LN26@operator
  001ba	83 7d c4 00	 cmp	 DWORD PTR __Pad$[ebp], 0
  001be	0f 86 ab 00 00
	00		 jbe	 $LN11@operator
$LN26@operator:

; 806  : 				if (_Traits::eq_int_type(_Traits::eof(),

  001c4	8b 45 08	 mov	 eax, DWORD PTR __Ostr$[ebp]
  001c7	8b 08		 mov	 ecx, DWORD PTR [eax]
  001c9	8b 55 08	 mov	 edx, DWORD PTR __Ostr$[ebp]
  001cc	03 51 04	 add	 edx, DWORD PTR [ecx+4]
  001cf	8b f4		 mov	 esi, esp
  001d1	8b ca		 mov	 ecx, edx
  001d3	ff 15 00 00 00
	00		 call	 DWORD PTR __imp_?fill@?$basic_ios@DU?$char_traits@D@std@@@std@@QBEDXZ
  001d9	3b f4		 cmp	 esi, esp
  001db	e8 00 00 00 00	 call	 __RTC_CheckEsp
  001e0	88 85 b3 fe ff
	ff		 mov	 BYTE PTR tv284[ebp], al
  001e6	8b 45 08	 mov	 eax, DWORD PTR __Ostr$[ebp]
  001e9	8b 08		 mov	 ecx, DWORD PTR [eax]
  001eb	8b 55 08	 mov	 edx, DWORD PTR __Ostr$[ebp]
  001ee	03 51 04	 add	 edx, DWORD PTR [ecx+4]
  001f1	8b f4		 mov	 esi, esp
  001f3	8b ca		 mov	 ecx, edx
  001f5	ff 15 00 00 00
	00		 call	 DWORD PTR __imp_?rdbuf@?$basic_ios@DU?$char_traits@D@std@@@std@@QBEPAV?$basic_streambuf@DU?$char_traits@D@std@@@2@XZ
  001fb	3b f4		 cmp	 esi, esp
  001fd	e8 00 00 00 00	 call	 __RTC_CheckEsp
  00202	89 85 ac fe ff
	ff		 mov	 DWORD PTR tv285[ebp], eax
  00208	8b f4		 mov	 esi, esp
  0020a	0f b6 85 b3 fe
	ff ff		 movzx	 eax, BYTE PTR tv284[ebp]
  00211	50		 push	 eax
  00212	8b 8d ac fe ff
	ff		 mov	 ecx, DWORD PTR tv285[ebp]
  00218	ff 15 00 00 00
	00		 call	 DWORD PTR __imp_?sputc@?$basic_streambuf@DU?$char_traits@D@std@@@std@@QAEHD@Z
  0021e	3b f4		 cmp	 esi, esp
  00220	e8 00 00 00 00	 call	 __RTC_CheckEsp
  00225	89 85 a8 fe ff
	ff		 mov	 DWORD PTR tv286[ebp], eax
  0022b	8b 8d a8 fe ff
	ff		 mov	 ecx, DWORD PTR tv286[ebp]
  00231	89 8d e8 fe ff
	ff		 mov	 DWORD PTR $T6[ebp], ecx
  00237	e8 00 00 00 00	 call	 ?eof@?$char_traits@D@std@@SAHXZ ; std::char_traits<char>::eof
  0023c	89 85 dc fe ff
	ff		 mov	 DWORD PTR $T5[ebp], eax
  00242	8d 95 e8 fe ff
	ff		 lea	 edx, DWORD PTR $T6[ebp]
  00248	52		 push	 edx
  00249	8d 85 dc fe ff
	ff		 lea	 eax, DWORD PTR $T5[ebp]
  0024f	50		 push	 eax
  00250	e8 00 00 00 00	 call	 ?eq_int_type@?$char_traits@D@std@@SA_NABH0@Z ; std::char_traits<char>::eq_int_type
  00255	83 c4 08	 add	 esp, 8
  00258	0f b6 c8	 movzx	 ecx, al
  0025b	85 c9		 test	 ecx, ecx
  0025d	74 0b		 je	 SHORT $LN12@operator

; 807  : 					_Ostr.rdbuf()->sputc(_Ostr.fill())))
; 808  : 					{	// insertion failed, quit
; 809  : 					_State |= ios_base::badbit;

  0025f	8b 45 e4	 mov	 eax, DWORD PTR __State$[ebp]
  00262	83 c8 04	 or	 eax, 4
  00265	89 45 e4	 mov	 DWORD PTR __State$[ebp], eax

; 810  : 					break;

  00268	eb 05		 jmp	 SHORT $LN11@operator
$LN12@operator:

; 811  : 					}
; 812  : 
; 813  : 		if (_State == ios_base::goodbit

  0026a	e9 2d ff ff ff	 jmp	 $LN2@operator
$LN11@operator:

; 814  : 			&& _Ostr.rdbuf()->sputn(_Val, _Count) != _Count)

  0026f	83 7d e4 00	 cmp	 DWORD PTR __State$[ebp], 0
  00273	75 6e		 jne	 SHORT $LN13@operator
  00275	8b 45 08	 mov	 eax, DWORD PTR __Ostr$[ebp]
  00278	8b 08		 mov	 ecx, DWORD PTR [eax]
  0027a	8b 55 08	 mov	 edx, DWORD PTR __Ostr$[ebp]
  0027d	03 51 04	 add	 edx, DWORD PTR [ecx+4]
  00280	8b f4		 mov	 esi, esp
  00282	8b ca		 mov	 ecx, edx
  00284	ff 15 00 00 00
	00		 call	 DWORD PTR __imp_?rdbuf@?$basic_ios@DU?$char_traits@D@std@@@std@@QBEPAV?$basic_streambuf@DU?$char_traits@D@std@@@2@XZ
  0028a	3b f4		 cmp	 esi, esp
  0028c	e8 00 00 00 00	 call	 __RTC_CheckEsp
  00291	89 85 b0 fe ff
	ff		 mov	 DWORD PTR tv287[ebp], eax
  00297	8b f4		 mov	 esi, esp
  00299	8b 45 d8	 mov	 eax, DWORD PTR __Count$[ebp+4]
  0029c	50		 push	 eax
  0029d	8b 4d d4	 mov	 ecx, DWORD PTR __Count$[ebp]
  002a0	51		 push	 ecx
  002a1	8b 55 0c	 mov	 edx, DWORD PTR __Val$[ebp]
  002a4	52		 push	 edx
  002a5	8b 8d b0 fe ff
	ff		 mov	 ecx, DWORD PTR tv287[ebp]
  002ab	ff 15 00 00 00
	00		 call	 DWORD PTR __imp_?sputn@?$basic_streambuf@DU?$char_traits@D@std@@@std@@QAE_JPBD_J@Z
  002b1	3b f4		 cmp	 esi, esp
  002b3	e8 00 00 00 00	 call	 __RTC_CheckEsp
  002b8	89 85 a8 fe ff
	ff		 mov	 DWORD PTR tv288[ebp], eax
  002be	89 95 ac fe ff
	ff		 mov	 DWORD PTR tv288[ebp+4], edx
  002c4	8b 85 a8 fe ff
	ff		 mov	 eax, DWORD PTR tv288[ebp]
  002ca	3b 45 d4	 cmp	 eax, DWORD PTR __Count$[ebp]
  002cd	75 0b		 jne	 SHORT $LN27@operator
  002cf	8b 8d ac fe ff
	ff		 mov	 ecx, DWORD PTR tv288[ebp+4]
  002d5	3b 4d d8	 cmp	 ecx, DWORD PTR __Count$[ebp+4]
  002d8	74 09		 je	 SHORT $LN13@operator
$LN27@operator:

; 815  : 			_State |= ios_base::badbit;

  002da	8b 45 e4	 mov	 eax, DWORD PTR __State$[ebp]
  002dd	83 c8 04	 or	 eax, 4
  002e0	89 45 e4	 mov	 DWORD PTR __State$[ebp], eax
$LN13@operator:

; 816  : 
; 817  : 		if (_State == ios_base::goodbit)

  002e3	83 7d e4 00	 cmp	 DWORD PTR __State$[ebp], 0
  002e7	0f 85 d5 00 00
	00		 jne	 $LN14@operator

; 818  : 			for (; 0 < _Pad; --_Pad)	// pad on right

  002ed	eb 12		 jmp	 SHORT $LN7@operator
$LN5@operator:
  002ef	8b 45 c4	 mov	 eax, DWORD PTR __Pad$[ebp]
  002f2	83 e8 01	 sub	 eax, 1
  002f5	8b 4d c8	 mov	 ecx, DWORD PTR __Pad$[ebp+4]
  002f8	83 d9 00	 sbb	 ecx, 0
  002fb	89 45 c4	 mov	 DWORD PTR __Pad$[ebp], eax
  002fe	89 4d c8	 mov	 DWORD PTR __Pad$[ebp+4], ecx
$LN7@operator:
  00301	83 7d c8 00	 cmp	 DWORD PTR __Pad$[ebp+4], 0
  00305	0f 8c b7 00 00
	00		 jl	 $LN14@operator
  0030b	7f 0a		 jg	 SHORT $LN28@operator
  0030d	83 7d c4 00	 cmp	 DWORD PTR __Pad$[ebp], 0
  00311	0f 86 ab 00 00
	00		 jbe	 $LN14@operator
$LN28@operator:

; 819  : 				if (_Traits::eq_int_type(_Traits::eof(),

  00317	8b 45 08	 mov	 eax, DWORD PTR __Ostr$[ebp]
  0031a	8b 08		 mov	 ecx, DWORD PTR [eax]
  0031c	8b 55 08	 mov	 edx, DWORD PTR __Ostr$[ebp]
  0031f	03 51 04	 add	 edx, DWORD PTR [ecx+4]
  00322	8b f4		 mov	 esi, esp
  00324	8b ca		 mov	 ecx, edx
  00326	ff 15 00 00 00
	00		 call	 DWORD PTR __imp_?fill@?$basic_ios@DU?$char_traits@D@std@@@std@@QBEDXZ
  0032c	3b f4		 cmp	 esi, esp
  0032e	e8 00 00 00 00	 call	 __RTC_CheckEsp
  00333	88 85 b3 fe ff
	ff		 mov	 BYTE PTR tv289[ebp], al
  00339	8b 45 08	 mov	 eax, DWORD PTR __Ostr$[ebp]
  0033c	8b 08		 mov	 ecx, DWORD PTR [eax]
  0033e	8b 55 08	 mov	 edx, DWORD PTR __Ostr$[ebp]
  00341	03 51 04	 add	 edx, DWORD PTR [ecx+4]
  00344	8b f4		 mov	 esi, esp
  00346	8b ca		 mov	 ecx, edx
  00348	ff 15 00 00 00
	00		 call	 DWORD PTR __imp_?rdbuf@?$basic_ios@DU?$char_traits@D@std@@@std@@QBEPAV?$basic_streambuf@DU?$char_traits@D@std@@@2@XZ
  0034e	3b f4		 cmp	 esi, esp
  00350	e8 00 00 00 00	 call	 __RTC_CheckEsp
  00355	89 85 ac fe ff
	ff		 mov	 DWORD PTR tv290[ebp], eax
  0035b	8b f4		 mov	 esi, esp
  0035d	0f b6 85 b3 fe
	ff ff		 movzx	 eax, BYTE PTR tv289[ebp]
  00364	50		 push	 eax
  00365	8b 8d ac fe ff
	ff		 mov	 ecx, DWORD PTR tv290[ebp]
  0036b	ff 15 00 00 00
	00		 call	 DWORD PTR __imp_?sputc@?$basic_streambuf@DU?$char_traits@D@std@@@std@@QAEHD@Z
  00371	3b f4		 cmp	 esi, esp
  00373	e8 00 00 00 00	 call	 __RTC_CheckEsp
  00378	89 85 a8 fe ff
	ff		 mov	 DWORD PTR tv291[ebp], eax
  0037e	8b 8d a8 fe ff
	ff		 mov	 ecx, DWORD PTR tv291[ebp]
  00384	89 8d d0 fe ff
	ff		 mov	 DWORD PTR $T4[ebp], ecx
  0038a	e8 00 00 00 00	 call	 ?eof@?$char_traits@D@std@@SAHXZ ; std::char_traits<char>::eof
  0038f	89 85 c4 fe ff
	ff		 mov	 DWORD PTR $T3[ebp], eax
  00395	8d 95 d0 fe ff
	ff		 lea	 edx, DWORD PTR $T4[ebp]
  0039b	52		 push	 edx
  0039c	8d 85 c4 fe ff
	ff		 lea	 eax, DWORD PTR $T3[ebp]
  003a2	50		 push	 eax
  003a3	e8 00 00 00 00	 call	 ?eq_int_type@?$char_traits@D@std@@SA_NABH0@Z ; std::char_traits<char>::eq_int_type
  003a8	83 c4 08	 add	 esp, 8
  003ab	0f b6 c8	 movzx	 ecx, al
  003ae	85 c9		 test	 ecx, ecx
  003b0	74 0b		 je	 SHORT $LN15@operator

; 820  : 					_Ostr.rdbuf()->sputc(_Ostr.fill())))
; 821  : 					{	// insertion failed, quit
; 822  : 					_State |= ios_base::badbit;

  003b2	8b 45 e4	 mov	 eax, DWORD PTR __State$[ebp]
  003b5	83 c8 04	 or	 eax, 4
  003b8	89 45 e4	 mov	 DWORD PTR __State$[ebp], eax

; 823  : 					break;

  003bb	eb 05		 jmp	 SHORT $LN14@operator
$LN15@operator:

; 824  : 					}

  003bd	e9 2d ff ff ff	 jmp	 $LN5@operator
$LN14@operator:

; 825  : 		_Ostr.width(0);

  003c2	8b f4		 mov	 esi, esp
  003c4	6a 00		 push	 0
  003c6	6a 00		 push	 0
  003c8	8b 45 08	 mov	 eax, DWORD PTR __Ostr$[ebp]
  003cb	8b 08		 mov	 ecx, DWORD PTR [eax]
  003cd	8b 55 08	 mov	 edx, DWORD PTR __Ostr$[ebp]
  003d0	03 51 04	 add	 edx, DWORD PTR [ecx+4]
  003d3	8b ca		 mov	 ecx, edx
  003d5	ff 15 00 00 00
	00		 call	 DWORD PTR __imp_?width@ios_base@std@@QAE_J_J@Z
  003db	3b f4		 cmp	 esi, esp
  003dd	e8 00 00 00 00	 call	 __RTC_CheckEsp
  003e2	eb 26		 jmp	 SHORT $LN19@operator
__catch$??$?6U?$char_traits@D@std@@@std@@YAAAV?$basic_ostream@DU?$char_traits@D@std@@@0@AAV10@PBD@Z$0:

; 826  : 		_CATCH_IO_(_Ostr)

  003e4	8b f4		 mov	 esi, esp
  003e6	6a 01		 push	 1
  003e8	6a 04		 push	 4
  003ea	8b 45 08	 mov	 eax, DWORD PTR __Ostr$[ebp]
  003ed	8b 08		 mov	 ecx, DWORD PTR [eax]
  003ef	8b 55 08	 mov	 edx, DWORD PTR __Ostr$[ebp]
  003f2	03 51 04	 add	 edx, DWORD PTR [ecx+4]
  003f5	8b ca		 mov	 ecx, edx
  003f7	ff 15 00 00 00
	00		 call	 DWORD PTR __imp_?setstate@?$basic_ios@DU?$char_traits@D@std@@@std@@QAEXH_N@Z
  003fd	3b f4		 cmp	 esi, esp
  003ff	e8 00 00 00 00	 call	 __RTC_CheckEsp
  00404	b8 00 00 00 00	 mov	 eax, $LN23@operator
  00409	c3		 ret	 0
$LN19@operator:
  0040a	c7 45 fc 00 00
	00 00		 mov	 DWORD PTR __$EHRec$[ebp+12], 0
  00411	eb 07		 jmp	 SHORT $LN9@operator
$LN23@operator:
  00413	c7 45 fc 00 00
	00 00		 mov	 DWORD PTR __$EHRec$[ebp+12], 0
$LN9@operator:

; 827  : 		}
; 828  : 
; 829  : 	_Ostr.setstate(_State);

  0041a	8b f4		 mov	 esi, esp
  0041c	6a 00		 push	 0
  0041e	8b 45 e4	 mov	 eax, DWORD PTR __State$[ebp]
  00421	50		 push	 eax
  00422	8b 4d 08	 mov	 ecx, DWORD PTR __Ostr$[ebp]
  00425	8b 11		 mov	 edx, DWORD PTR [ecx]
  00427	8b 4d 08	 mov	 ecx, DWORD PTR __Ostr$[ebp]
  0042a	03 4a 04	 add	 ecx, DWORD PTR [edx+4]
  0042d	ff 15 00 00 00
	00		 call	 DWORD PTR __imp_?setstate@?$basic_ios@DU?$char_traits@D@std@@@std@@QAEXH_N@Z
  00433	3b f4		 cmp	 esi, esp
  00435	e8 00 00 00 00	 call	 __RTC_CheckEsp

; 830  : 	return (_Ostr);

  0043a	8b 45 08	 mov	 eax, DWORD PTR __Ostr$[ebp]
  0043d	89 85 b8 fe ff
	ff		 mov	 DWORD PTR $T2[ebp], eax
  00443	c7 45 fc ff ff
	ff ff		 mov	 DWORD PTR __$EHRec$[ebp+12], -1
  0044a	8d 4d b4	 lea	 ecx, DWORD PTR __Ok$[ebp]
  0044d	e8 00 00 00 00	 call	 ??1sentry@?$basic_ostream@DU?$char_traits@D@std@@@std@@QAE@XZ ; std::basic_ostream<char,std::char_traits<char> >::sentry::~sentry
  00452	8b 85 b8 fe ff
	ff		 mov	 eax, DWORD PTR $T2[ebp]

; 831  : 	}

  00458	52		 push	 edx
  00459	8b cd		 mov	 ecx, ebp
  0045b	50		 push	 eax
  0045c	8d 15 00 00 00
	00		 lea	 edx, DWORD PTR $LN32@operator
  00462	e8 00 00 00 00	 call	 @_RTC_CheckStackVars@8
  00467	58		 pop	 eax
  00468	5a		 pop	 edx
  00469	8b 4d f4	 mov	 ecx, DWORD PTR __$EHRec$[ebp+4]
  0046c	64 89 0d 00 00
	00 00		 mov	 DWORD PTR fs:0, ecx
  00473	59		 pop	 ecx
  00474	5f		 pop	 edi
  00475	5e		 pop	 esi
  00476	5b		 pop	 ebx
  00477	8b 4d ec	 mov	 ecx, DWORD PTR __$ArrayPad$[ebp]
  0047a	33 cd		 xor	 ecx, ebp
  0047c	e8 00 00 00 00	 call	 @__security_check_cookie@4
  00481	81 c4 64 01 00
	00		 add	 esp, 356		; 00000164H
  00487	3b ec		 cmp	 ebp, esp
  00489	e8 00 00 00 00	 call	 __RTC_CheckEsp
  0048e	8b e5		 mov	 esp, ebp
  00490	5d		 pop	 ebp
  00491	c3		 ret	 0
  00492	66 90		 npad	 2
$LN32@operator:
  00494	01 00 00 00	 DD	 1
  00498	00 00 00 00	 DD	 $LN31@operator
$LN31@operator:
  0049c	b4 ff ff ff	 DD	 -76			; ffffffb4H
  004a0	08 00 00 00	 DD	 8
  004a4	00 00 00 00	 DD	 $LN29@operator
$LN29@operator:
  004a8	5f		 DB	 95			; 0000005fH
  004a9	4f		 DB	 79			; 0000004fH
  004aa	6b		 DB	 107			; 0000006bH
  004ab	00		 DB	 0
_TEXT	ENDS
;	COMDAT text$x
text$x	SEGMENT
__unwindfunclet$??$?6U?$char_traits@D@std@@@std@@YAAAV?$basic_ostream@DU?$char_traits@D@std@@@0@AAV10@PBD@Z$2:
  00000	8d 4d b4	 lea	 ecx, DWORD PTR __Ok$[ebp]
  00003	e9 00 00 00 00	 jmp	 ??1sentry@?$basic_ostream@DU?$char_traits@D@std@@@std@@QAE@XZ ; std::basic_ostream<char,std::char_traits<char> >::sentry::~sentry
__ehhandler$??$?6U?$char_traits@D@std@@@std@@YAAAV?$basic_ostream@DU?$char_traits@D@std@@@0@AAV10@PBD@Z:
  00008	8b 54 24 08	 mov	 edx, DWORD PTR [esp+8]
  0000c	8d 42 0c	 lea	 eax, DWORD PTR [edx+12]
  0000f	8b 8a 98 fe ff
	ff		 mov	 ecx, DWORD PTR [edx-360]
  00015	33 c8		 xor	 ecx, eax
  00017	e8 00 00 00 00	 call	 @__security_check_cookie@4
  0001c	8b 4a f8	 mov	 ecx, DWORD PTR [edx-8]
  0001f	33 c8		 xor	 ecx, eax
  00021	e8 00 00 00 00	 call	 @__security_check_cookie@4
  00026	b8 00 00 00 00	 mov	 eax, OFFSET __ehfuncinfo$??$?6U?$char_traits@D@std@@@std@@YAAAV?$basic_ostream@DU?$char_traits@D@std@@@0@AAV10@PBD@Z
  0002b	e9 00 00 00 00	 jmp	 ___CxxFrameHandler3
text$x	ENDS
??$?6U?$char_traits@D@std@@@std@@YAAAV?$basic_ostream@DU?$char_traits@D@std@@@0@AAV10@PBD@Z ENDP ; std::operator<<<std::char_traits<char> >
; Function compile flags: /Odtp /RTCsu /ZI
; File d:\facul\6o semestre\arquitetura de computadores\lab\exemplos_x86\exemplos_x86\exemplos_x86.cpp
;	COMDAT _main
_TEXT	SEGMENT
_main	PROC						; COMDAT

; 20   : {

  00000	55		 push	 ebp
  00001	8b ec		 mov	 ebp, esp
  00003	81 ec c0 00 00
	00		 sub	 esp, 192		; 000000c0H
  00009	53		 push	 ebx
  0000a	56		 push	 esi
  0000b	57		 push	 edi
  0000c	8d bd 40 ff ff
	ff		 lea	 edi, DWORD PTR [ebp-192]
  00012	b9 30 00 00 00	 mov	 ecx, 48			; 00000030H
  00017	b8 cc cc cc cc	 mov	 eax, -858993460		; ccccccccH
  0001c	f3 ab		 rep stosd
  0001e	b9 00 00 00 00	 mov	 ecx, OFFSET __A8B04EBD_exemplos_x86@cpp
  00023	e8 00 00 00 00	 call	 @__CheckForDebuggerJustMyCode@4

; 21   :     std::cout << "Hello World!\n";

  00028	68 00 00 00 00	 push	 OFFSET ??_C@_0O@NFOCKKMG@Hello?5World?$CB?6@
  0002d	a1 00 00 00 00	 mov	 eax, DWORD PTR __imp_?cout@std@@3V?$basic_ostream@DU?$char_traits@D@std@@@1@A
  00032	50		 push	 eax
  00033	e8 00 00 00 00	 call	 ??$?6U?$char_traits@D@std@@@std@@YAAAV?$basic_ostream@DU?$char_traits@D@std@@@0@AAV10@PBD@Z ; std::operator<<<std::char_traits<char> >
  00038	83 c4 08	 add	 esp, 8

; 22   : 
; 23   : 	//Exemplo1();
; 24   : 	//Exemplo2();
; 25   : 	//Exemplo3();
; 26   : 	//Exemplo4();
; 27   : 	//Exemplo5();
; 28   : 	//Relogio();
; 29   : 	//Delta();
; 30   : 	//Facens();
; 31   : 	//Maior();
; 32   : 	Exercicio1();

  0003b	e8 00 00 00 00	 call	 ?Exercicio1@@YAXXZ	; Exercicio1

; 33   : 	Exercicio2();

  00040	e8 00 00 00 00	 call	 ?Exercicio2@@YAXXZ	; Exercicio2

; 34   : }

  00045	33 c0		 xor	 eax, eax
  00047	5f		 pop	 edi
  00048	5e		 pop	 esi
  00049	5b		 pop	 ebx
  0004a	81 c4 c0 00 00
	00		 add	 esp, 192		; 000000c0H
  00050	3b ec		 cmp	 ebp, esp
  00052	e8 00 00 00 00	 call	 __RTC_CheckEsp
  00057	8b e5		 mov	 esp, ebp
  00059	5d		 pop	 ebp
  0005a	c3		 ret	 0
_main	ENDP
_TEXT	ENDS
; Function compile flags: /Odtp /RTCsu /ZI
; File d:\facul\6o semestre\arquitetura de computadores\lab\exemplos_x86\exemplos_x86\exemplos_x86.cpp
;	COMDAT ?Exercicio2@@YAXXZ
_TEXT	SEGMENT
_result$ = -41						; size = 1
_string2$ = -32						; size = 7
_string1$ = -16						; size = 7
__$ArrayPad$ = -4					; size = 4
?Exercicio2@@YAXXZ PROC					; Exercicio2, COMDAT

; 255  : void Exercicio2(void) {

  00000	55		 push	 ebp
  00001	8b ec		 mov	 ebp, esp
  00003	81 ec f0 00 00
	00		 sub	 esp, 240		; 000000f0H
  00009	53		 push	 ebx
  0000a	56		 push	 esi
  0000b	57		 push	 edi
  0000c	8d bd 10 ff ff
	ff		 lea	 edi, DWORD PTR [ebp-240]
  00012	b9 3c 00 00 00	 mov	 ecx, 60			; 0000003cH
  00017	b8 cc cc cc cc	 mov	 eax, -858993460		; ccccccccH
  0001c	f3 ab		 rep stosd
  0001e	a1 00 00 00 00	 mov	 eax, DWORD PTR ___security_cookie
  00023	33 c5		 xor	 eax, ebp
  00025	89 45 fc	 mov	 DWORD PTR __$ArrayPad$[ebp], eax

; 256  : 	char string1[] = "teste\0";

  00028	a1 00 00 00 00	 mov	 eax, DWORD PTR ??_C@_06DGLOOOEP@teste?$AA@
  0002d	89 45 f0	 mov	 DWORD PTR _string1$[ebp], eax
  00030	66 8b 0d 04 00
	00 00		 mov	 cx, WORD PTR ??_C@_06DGLOOOEP@teste?$AA@+4
  00037	66 89 4d f4	 mov	 WORD PTR _string1$[ebp+4], cx
  0003b	8a 15 06 00 00
	00		 mov	 dl, BYTE PTR ??_C@_06DGLOOOEP@teste?$AA@+6
  00041	88 55 f6	 mov	 BYTE PTR _string1$[ebp+6], dl

; 257  : 	char string2[] = "teste\0";

  00044	a1 00 00 00 00	 mov	 eax, DWORD PTR ??_C@_06DGLOOOEP@teste?$AA@
  00049	89 45 e0	 mov	 DWORD PTR _string2$[ebp], eax
  0004c	66 8b 0d 04 00
	00 00		 mov	 cx, WORD PTR ??_C@_06DGLOOOEP@teste?$AA@+4
  00053	66 89 4d e4	 mov	 WORD PTR _string2$[ebp+4], cx
  00057	8a 15 06 00 00
	00		 mov	 dl, BYTE PTR ??_C@_06DGLOOOEP@teste?$AA@+6
  0005d	88 55 e6	 mov	 BYTE PTR _string2$[ebp+6], dl

; 258  : 	bool result = 1;

  00060	c6 45 d7 01	 mov	 BYTE PTR _result$[ebp], 1

; 259  : 
; 260  : 	__asm {
; 261  : 		mov ecx, 0

  00064	b9 00 00 00 00	 mov	 ecx, 0
$START$7:

; 262  : 		START:
; 263  : 			mov eax, DWORD PTR[string1 + ecx]

  00069	8b 84 0d f0 ff
	ff ff		 mov	 eax, DWORD PTR _string1$[ebp+ecx]

; 264  : 			cmp eax, DWORD PTR[string2 + ecx]

  00070	3b 84 0d e0 ff
	ff ff		 cmp	 eax, DWORD PTR _string2$[ebp+ecx]

; 265  : 			je FIND

  00077	74 06		 je	 SHORT $FIND$8

; 266  : 			mov result, 0

  00079	c6 45 d7 00	 mov	 BYTE PTR _result$[ebp], 0

; 267  : 			jmp END

  0007d	eb 08		 jmp	 SHORT $END$9
$FIND$8:

; 268  : 
; 269  : 		FIND:
; 270  : 			inc ecx

  0007f	41		 inc	 ecx

; 271  : 			cmp ecx, 6

  00080	83 f9 06	 cmp	 ecx, 6

; 272  : 			jg END

  00083	7f 02		 jg	 SHORT $END$9

; 273  : 			jmp START

  00085	eb e2		 jmp	 SHORT $START$7
$END$9:

; 274  : 
; 275  : 		END:
; 276  : 	}
; 277  : }

  00087	52		 push	 edx
  00088	8b cd		 mov	 ecx, ebp
  0008a	50		 push	 eax
  0008b	8d 15 00 00 00
	00		 lea	 edx, DWORD PTR $LN6@Exercicio2
  00091	e8 00 00 00 00	 call	 @_RTC_CheckStackVars@8
  00096	58		 pop	 eax
  00097	5a		 pop	 edx
  00098	5f		 pop	 edi
  00099	5e		 pop	 esi
  0009a	5b		 pop	 ebx
  0009b	8b 4d fc	 mov	 ecx, DWORD PTR __$ArrayPad$[ebp]
  0009e	33 cd		 xor	 ecx, ebp
  000a0	e8 00 00 00 00	 call	 @__security_check_cookie@4
  000a5	81 c4 f0 00 00
	00		 add	 esp, 240		; 000000f0H
  000ab	3b ec		 cmp	 ebp, esp
  000ad	e8 00 00 00 00	 call	 __RTC_CheckEsp
  000b2	8b e5		 mov	 esp, ebp
  000b4	5d		 pop	 ebp
  000b5	c3		 ret	 0
  000b6	66 90		 npad	 2
$LN6@Exercicio2:
  000b8	02 00 00 00	 DD	 2
  000bc	00 00 00 00	 DD	 $LN5@Exercicio2
$LN5@Exercicio2:
  000c0	f0 ff ff ff	 DD	 -16			; fffffff0H
  000c4	07 00 00 00	 DD	 7
  000c8	00 00 00 00	 DD	 $LN3@Exercicio2
  000cc	e0 ff ff ff	 DD	 -32			; ffffffe0H
  000d0	07 00 00 00	 DD	 7
  000d4	00 00 00 00	 DD	 $LN4@Exercicio2
$LN4@Exercicio2:
  000d8	73		 DB	 115			; 00000073H
  000d9	74		 DB	 116			; 00000074H
  000da	72		 DB	 114			; 00000072H
  000db	69		 DB	 105			; 00000069H
  000dc	6e		 DB	 110			; 0000006eH
  000dd	67		 DB	 103			; 00000067H
  000de	32		 DB	 50			; 00000032H
  000df	00		 DB	 0
$LN3@Exercicio2:
  000e0	73		 DB	 115			; 00000073H
  000e1	74		 DB	 116			; 00000074H
  000e2	72		 DB	 114			; 00000072H
  000e3	69		 DB	 105			; 00000069H
  000e4	6e		 DB	 110			; 0000006eH
  000e5	67		 DB	 103			; 00000067H
  000e6	31		 DB	 49			; 00000031H
  000e7	00		 DB	 0
?Exercicio2@@YAXXZ ENDP					; Exercicio2
_TEXT	ENDS
; Function compile flags: /Odtp /RTCsu /ZI
; File d:\facul\6o semestre\arquitetura de computadores\lab\exemplos_x86\exemplos_x86\exemplos_x86.cpp
;	COMDAT ?Exercicio1@@YAXXZ
_TEXT	SEGMENT
_cont$ = -56						; size = 4
_valor$ = -44						; size = 4
_lista$ = -32						; size = 24
__$ArrayPad$ = -4					; size = 4
?Exercicio1@@YAXXZ PROC					; Exercicio1, COMDAT

; 231  : void Exercicio1(void) {

  00000	55		 push	 ebp
  00001	8b ec		 mov	 ebp, esp
  00003	81 ec fc 00 00
	00		 sub	 esp, 252		; 000000fcH
  00009	53		 push	 ebx
  0000a	56		 push	 esi
  0000b	57		 push	 edi
  0000c	8d bd 04 ff ff
	ff		 lea	 edi, DWORD PTR [ebp-252]
  00012	b9 3f 00 00 00	 mov	 ecx, 63			; 0000003fH
  00017	b8 cc cc cc cc	 mov	 eax, -858993460		; ccccccccH
  0001c	f3 ab		 rep stosd
  0001e	a1 00 00 00 00	 mov	 eax, DWORD PTR ___security_cookie
  00023	33 c5		 xor	 eax, ebp
  00025	89 45 fc	 mov	 DWORD PTR __$ArrayPad$[ebp], eax

; 232  : 	int lista[] = { 1,2,3,4,2,1 };

  00028	c7 45 e0 01 00
	00 00		 mov	 DWORD PTR _lista$[ebp], 1
  0002f	c7 45 e4 02 00
	00 00		 mov	 DWORD PTR _lista$[ebp+4], 2
  00036	c7 45 e8 03 00
	00 00		 mov	 DWORD PTR _lista$[ebp+8], 3
  0003d	c7 45 ec 04 00
	00 00		 mov	 DWORD PTR _lista$[ebp+12], 4
  00044	c7 45 f0 02 00
	00 00		 mov	 DWORD PTR _lista$[ebp+16], 2
  0004b	c7 45 f4 01 00
	00 00		 mov	 DWORD PTR _lista$[ebp+20], 1

; 233  : 	int valor = 1;

  00052	c7 45 d4 01 00
	00 00		 mov	 DWORD PTR _valor$[ebp], 1

; 234  : 	int cont = 0;

  00059	c7 45 c8 00 00
	00 00		 mov	 DWORD PTR _cont$[ebp], 0

; 235  : 
; 236  : 	__asm {
; 237  : 		mov ecx, 0

  00060	b9 00 00 00 00	 mov	 ecx, 0
$START$6:

; 238  : 		START:
; 239  : 		mov eax, DWORD PTR[lista + ecx * 4]

  00065	8b 84 8d e0 ff
	ff ff		 mov	 eax, DWORD PTR _lista$[ebp+ecx*4]

; 240  : 			cmp eax, valor

  0006c	3b 45 d4	 cmp	 eax, DWORD PTR _valor$[ebp]

; 241  : 			je FIND

  0006f	74 08		 je	 SHORT $FIND$7

; 242  : 			inc ecx

  00071	41		 inc	 ecx

; 243  : 			cmp ecx, 6

  00072	83 f9 06	 cmp	 ecx, 6

; 244  : 			jg END

  00075	7f 08		 jg	 SHORT $END$8

; 245  : 			jmp START

  00077	eb ec		 jmp	 SHORT $START$6
$FIND$7:

; 246  : 
; 247  : 			FIND :
; 248  : 		inc cont

  00079	ff 45 c8	 inc	 DWORD PTR _cont$[ebp]

; 249  : 			inc ecx

  0007c	41		 inc	 ecx

; 250  : 			jmp START

  0007d	eb e6		 jmp	 SHORT $START$6
$END$8:

; 251  : 
; 252  : 			END :
; 253  : 	}
; 254  : }

  0007f	52		 push	 edx
  00080	8b cd		 mov	 ecx, ebp
  00082	50		 push	 eax
  00083	8d 15 00 00 00
	00		 lea	 edx, DWORD PTR $LN5@Exercicio1
  00089	e8 00 00 00 00	 call	 @_RTC_CheckStackVars@8
  0008e	58		 pop	 eax
  0008f	5a		 pop	 edx
  00090	5f		 pop	 edi
  00091	5e		 pop	 esi
  00092	5b		 pop	 ebx
  00093	8b 4d fc	 mov	 ecx, DWORD PTR __$ArrayPad$[ebp]
  00096	33 cd		 xor	 ecx, ebp
  00098	e8 00 00 00 00	 call	 @__security_check_cookie@4
  0009d	81 c4 fc 00 00
	00		 add	 esp, 252		; 000000fcH
  000a3	3b ec		 cmp	 ebp, esp
  000a5	e8 00 00 00 00	 call	 __RTC_CheckEsp
  000aa	8b e5		 mov	 esp, ebp
  000ac	5d		 pop	 ebp
  000ad	c3		 ret	 0
  000ae	66 90		 npad	 2
$LN5@Exercicio1:
  000b0	01 00 00 00	 DD	 1
  000b4	00 00 00 00	 DD	 $LN4@Exercicio1
$LN4@Exercicio1:
  000b8	e0 ff ff ff	 DD	 -32			; ffffffe0H
  000bc	18 00 00 00	 DD	 24			; 00000018H
  000c0	00 00 00 00	 DD	 $LN3@Exercicio1
$LN3@Exercicio1:
  000c4	6c		 DB	 108			; 0000006cH
  000c5	69		 DB	 105			; 00000069H
  000c6	73		 DB	 115			; 00000073H
  000c7	74		 DB	 116			; 00000074H
  000c8	61		 DB	 97			; 00000061H
  000c9	00		 DB	 0
?Exercicio1@@YAXXZ ENDP					; Exercicio1
_TEXT	ENDS
; Function compile flags: /Odtp /RTCsu /ZI
; File d:\facul\6o semestre\arquitetura de computadores\lab\exemplos_x86\exemplos_x86\exemplos_x86.cpp
;	COMDAT ?Maior@@YAXXZ
_TEXT	SEGMENT
_cont$ = -96						; size = 4
_inteiro$ = -84						; size = 4
_indice$ = -72						; size = 4
_maior$ = -60						; size = 4
_v$ = -48						; size = 40
__$ArrayPad$ = -4					; size = 4
?Maior@@YAXXZ PROC					; Maior, COMDAT

; 201  : void Maior(void) {

  00000	55		 push	 ebp
  00001	8b ec		 mov	 ebp, esp
  00003	81 ec 24 01 00
	00		 sub	 esp, 292		; 00000124H
  00009	53		 push	 ebx
  0000a	56		 push	 esi
  0000b	57		 push	 edi
  0000c	8d bd dc fe ff
	ff		 lea	 edi, DWORD PTR [ebp-292]
  00012	b9 49 00 00 00	 mov	 ecx, 73			; 00000049H
  00017	b8 cc cc cc cc	 mov	 eax, -858993460		; ccccccccH
  0001c	f3 ab		 rep stosd
  0001e	a1 00 00 00 00	 mov	 eax, DWORD PTR ___security_cookie
  00023	33 c5		 xor	 eax, ebp
  00025	89 45 fc	 mov	 DWORD PTR __$ArrayPad$[ebp], eax

; 202  : 	int v[10] = { 3, 153, 4, 7, 12, 20, 133, 11, 9, 144 }, maior, indice = 4, inteiro = 4, cont = 0;

  00028	c7 45 d0 03 00
	00 00		 mov	 DWORD PTR _v$[ebp], 3
  0002f	c7 45 d4 99 00
	00 00		 mov	 DWORD PTR _v$[ebp+4], 153 ; 00000099H
  00036	c7 45 d8 04 00
	00 00		 mov	 DWORD PTR _v$[ebp+8], 4
  0003d	c7 45 dc 07 00
	00 00		 mov	 DWORD PTR _v$[ebp+12], 7
  00044	c7 45 e0 0c 00
	00 00		 mov	 DWORD PTR _v$[ebp+16], 12 ; 0000000cH
  0004b	c7 45 e4 14 00
	00 00		 mov	 DWORD PTR _v$[ebp+20], 20 ; 00000014H
  00052	c7 45 e8 85 00
	00 00		 mov	 DWORD PTR _v$[ebp+24], 133 ; 00000085H
  00059	c7 45 ec 0b 00
	00 00		 mov	 DWORD PTR _v$[ebp+28], 11 ; 0000000bH
  00060	c7 45 f0 09 00
	00 00		 mov	 DWORD PTR _v$[ebp+32], 9
  00067	c7 45 f4 90 00
	00 00		 mov	 DWORD PTR _v$[ebp+36], 144 ; 00000090H
  0006e	c7 45 b8 04 00
	00 00		 mov	 DWORD PTR _indice$[ebp], 4
  00075	c7 45 ac 04 00
	00 00		 mov	 DWORD PTR _inteiro$[ebp], 4
  0007c	c7 45 a0 00 00
	00 00		 mov	 DWORD PTR _cont$[ebp], 0

; 203  : 
; 204  : 	__asm {
; 205  : 		mov eax, DWORD PTR[v]

  00083	8b 45 d0	 mov	 eax, DWORD PTR _v$[ebp]

; 206  : 		mov[maior], eax

  00086	89 45 c4	 mov	 DWORD PTR _maior$[ebp], eax
$INICIO$6:

; 207  : 
; 208  : 		INICIO :
; 209  : 			mov ecx, indice

  00089	8b 4d b8	 mov	 ecx, DWORD PTR _indice$[ebp]

; 210  : 			mov eax, [maior]

  0008c	8b 45 c4	 mov	 eax, DWORD PTR _maior$[ebp]

; 211  : 			cmp eax, DWORD PTR[v + ecx]

  0008f	3b 84 0d d0 ff
	ff ff		 cmp	 eax, DWORD PTR _v$[ebp+ecx]

; 212  : 			jl MAIORTRUE

  00096	7c 02		 jl	 SHORT $MAIORTRUE$7

; 213  : 			jg MAIORFALSE

  00098	7f 0a		 jg	 SHORT $MAIORFALSE$8
$MAIORTRUE$7:

; 214  : 
; 215  : 		MAIORTRUE :
; 216  : 			mov eax, DWORD PTR[v + ecx]

  0009a	8b 84 0d d0 ff
	ff ff		 mov	 eax, DWORD PTR _v$[ebp+ecx]

; 217  : 			mov[maior], eax

  000a1	89 45 c4	 mov	 DWORD PTR _maior$[ebp], eax
$MAIORFALSE$8:

; 218  : 		MAIORFALSE :
; 219  : 			mov ecx, [indice]

  000a4	8b 4d b8	 mov	 ecx, DWORD PTR _indice$[ebp]

; 220  : 			add ecx, [inteiro]

  000a7	03 4d ac	 add	 ecx, DWORD PTR _inteiro$[ebp]

; 221  : 			mov[indice], ecx

  000aa	89 4d b8	 mov	 DWORD PTR _indice$[ebp], ecx

; 222  : 			inc cont

  000ad	ff 45 a0	 inc	 DWORD PTR _cont$[ebp]

; 223  : 			cmp cont, 10

  000b0	83 7d a0 0a	 cmp	 DWORD PTR _cont$[ebp], 10 ; 0000000aH

; 224  : 			jl INICIO

  000b4	7c d3		 jl	 SHORT $INICIO$6

; 225  : 			jmp FIM

  000b6	eb 00		 jmp	 SHORT $FIM$9
$FIM$9:

; 226  : 
; 227  : 		FIM :
; 228  : 
; 229  : 	}
; 230  : }

  000b8	52		 push	 edx
  000b9	8b cd		 mov	 ecx, ebp
  000bb	50		 push	 eax
  000bc	8d 15 00 00 00
	00		 lea	 edx, DWORD PTR $LN5@Maior
  000c2	e8 00 00 00 00	 call	 @_RTC_CheckStackVars@8
  000c7	58		 pop	 eax
  000c8	5a		 pop	 edx
  000c9	5f		 pop	 edi
  000ca	5e		 pop	 esi
  000cb	5b		 pop	 ebx
  000cc	8b 4d fc	 mov	 ecx, DWORD PTR __$ArrayPad$[ebp]
  000cf	33 cd		 xor	 ecx, ebp
  000d1	e8 00 00 00 00	 call	 @__security_check_cookie@4
  000d6	81 c4 24 01 00
	00		 add	 esp, 292		; 00000124H
  000dc	3b ec		 cmp	 ebp, esp
  000de	e8 00 00 00 00	 call	 __RTC_CheckEsp
  000e3	8b e5		 mov	 esp, ebp
  000e5	5d		 pop	 ebp
  000e6	c3		 ret	 0
  000e7	90		 npad	 1
$LN5@Maior:
  000e8	01 00 00 00	 DD	 1
  000ec	00 00 00 00	 DD	 $LN4@Maior
$LN4@Maior:
  000f0	d0 ff ff ff	 DD	 -48			; ffffffd0H
  000f4	28 00 00 00	 DD	 40			; 00000028H
  000f8	00 00 00 00	 DD	 $LN3@Maior
$LN3@Maior:
  000fc	76		 DB	 118			; 00000076H
  000fd	00		 DB	 0
?Maior@@YAXXZ ENDP					; Maior
_TEXT	ENDS
; Function compile flags: /Odtp /RTCsu /ZI
; File d:\facul\6o semestre\arquitetura de computadores\lab\exemplos_x86\exemplos_x86\exemplos_x86.cpp
;	COMDAT ?Facens@@YAXXZ
_TEXT	SEGMENT
_str2$ = -32						; size = 7
_str1$ = -16						; size = 7
__$ArrayPad$ = -4					; size = 4
?Facens@@YAXXZ PROC					; Facens, COMDAT

; 184  : void Facens(void) {

  00000	55		 push	 ebp
  00001	8b ec		 mov	 ebp, esp
  00003	81 ec e4 00 00
	00		 sub	 esp, 228		; 000000e4H
  00009	53		 push	 ebx
  0000a	56		 push	 esi
  0000b	57		 push	 edi
  0000c	8d bd 1c ff ff
	ff		 lea	 edi, DWORD PTR [ebp-228]
  00012	b9 39 00 00 00	 mov	 ecx, 57			; 00000039H
  00017	b8 cc cc cc cc	 mov	 eax, -858993460		; ccccccccH
  0001c	f3 ab		 rep stosd
  0001e	a1 00 00 00 00	 mov	 eax, DWORD PTR ___security_cookie
  00023	33 c5		 xor	 eax, ebp
  00025	89 45 fc	 mov	 DWORD PTR __$ArrayPad$[ebp], eax

; 185  : 	char str1[7] = "FACENS";

  00028	a1 00 00 00 00	 mov	 eax, DWORD PTR ??_C@_06NJEHJNMA@FACENS@
  0002d	89 45 f0	 mov	 DWORD PTR _str1$[ebp], eax
  00030	66 8b 0d 04 00
	00 00		 mov	 cx, WORD PTR ??_C@_06NJEHJNMA@FACENS@+4
  00037	66 89 4d f4	 mov	 WORD PTR _str1$[ebp+4], cx
  0003b	8a 15 06 00 00
	00		 mov	 dl, BYTE PTR ??_C@_06NJEHJNMA@FACENS@+6
  00041	88 55 f6	 mov	 BYTE PTR _str1$[ebp+6], dl

; 186  : 	char str2[7];
; 187  : 
; 188  : 	__asm {
; 189  : 		mov esi, 0

  00044	be 00 00 00 00	 mov	 esi, 0
$loop_contador$7:

; 190  : 		loop_contador:
; 191  : 			mov eax, esi

  00049	8b c6		 mov	 eax, esi

; 192  : 			mov ecx, esi

  0004b	8b ce		 mov	 ecx, esi

; 193  : 			mov dl, BYTE PTR [str1 + ecx]

  0004d	8a 94 0d f0 ff
	ff ff		 mov	 dl, BYTE PTR _str1$[ebp+ecx]

; 194  : 			mov BYTE PTR [str2 + eax], dl

  00054	88 94 05 e0 ff
	ff ff		 mov	 BYTE PTR _str2$[ebp+eax], dl

; 195  : 
; 196  : 			inc esi

  0005b	46		 inc	 esi

; 197  : 			cmp esi, 6

  0005c	83 fe 06	 cmp	 esi, 6

; 198  : 			jl loop_contador

  0005f	7c e8		 jl	 SHORT $loop_contador$7

; 199  : 	}
; 200  : }

  00061	52		 push	 edx
  00062	8b cd		 mov	 ecx, ebp
  00064	50		 push	 eax
  00065	8d 15 00 00 00
	00		 lea	 edx, DWORD PTR $LN6@Facens
  0006b	e8 00 00 00 00	 call	 @_RTC_CheckStackVars@8
  00070	58		 pop	 eax
  00071	5a		 pop	 edx
  00072	5f		 pop	 edi
  00073	5e		 pop	 esi
  00074	5b		 pop	 ebx
  00075	8b 4d fc	 mov	 ecx, DWORD PTR __$ArrayPad$[ebp]
  00078	33 cd		 xor	 ecx, ebp
  0007a	e8 00 00 00 00	 call	 @__security_check_cookie@4
  0007f	81 c4 e4 00 00
	00		 add	 esp, 228		; 000000e4H
  00085	3b ec		 cmp	 ebp, esp
  00087	e8 00 00 00 00	 call	 __RTC_CheckEsp
  0008c	8b e5		 mov	 esp, ebp
  0008e	5d		 pop	 ebp
  0008f	c3		 ret	 0
$LN6@Facens:
  00090	02 00 00 00	 DD	 2
  00094	00 00 00 00	 DD	 $LN5@Facens
$LN5@Facens:
  00098	f0 ff ff ff	 DD	 -16			; fffffff0H
  0009c	07 00 00 00	 DD	 7
  000a0	00 00 00 00	 DD	 $LN3@Facens
  000a4	e0 ff ff ff	 DD	 -32			; ffffffe0H
  000a8	07 00 00 00	 DD	 7
  000ac	00 00 00 00	 DD	 $LN4@Facens
$LN4@Facens:
  000b0	73		 DB	 115			; 00000073H
  000b1	74		 DB	 116			; 00000074H
  000b2	72		 DB	 114			; 00000072H
  000b3	32		 DB	 50			; 00000032H
  000b4	00		 DB	 0
$LN3@Facens:
  000b5	73		 DB	 115			; 00000073H
  000b6	74		 DB	 116			; 00000074H
  000b7	72		 DB	 114			; 00000072H
  000b8	31		 DB	 49			; 00000031H
  000b9	00		 DB	 0
?Facens@@YAXXZ ENDP					; Facens
_TEXT	ENDS
; Function compile flags: /Odtp /RTCsu /ZI
; File d:\facul\6o semestre\arquitetura de computadores\lab\exemplos_x86\exemplos_x86\exemplos_x86.cpp
;	COMDAT ?Delta@@YAXXZ
_TEXT	SEGMENT
_R$ = -48						; size = 4
_C$ = -36						; size = 4
_B$ = -24						; size = 4
_A$ = -12						; size = 4
__$ArrayPad$ = -4					; size = 4
?Delta@@YAXXZ PROC					; Delta, COMDAT

; 159  : void Delta(void) {

  00000	55		 push	 ebp
  00001	8b ec		 mov	 ebp, esp
  00003	81 ec f4 00 00
	00		 sub	 esp, 244		; 000000f4H
  00009	53		 push	 ebx
  0000a	56		 push	 esi
  0000b	57		 push	 edi
  0000c	8d bd 0c ff ff
	ff		 lea	 edi, DWORD PTR [ebp-244]
  00012	b9 3d 00 00 00	 mov	 ecx, 61			; 0000003dH
  00017	b8 cc cc cc cc	 mov	 eax, -858993460		; ccccccccH
  0001c	f3 ab		 rep stosd
  0001e	a1 00 00 00 00	 mov	 eax, DWORD PTR ___security_cookie
  00023	33 c5		 xor	 eax, ebp
  00025	89 45 fc	 mov	 DWORD PTR __$ArrayPad$[ebp], eax

; 160  : 	int A = 1;

  00028	c7 45 f4 01 00
	00 00		 mov	 DWORD PTR _A$[ebp], 1

; 161  : 	int B = 4;

  0002f	c7 45 e8 04 00
	00 00		 mov	 DWORD PTR _B$[ebp], 4

; 162  : 	int C = 3;

  00036	c7 45 dc 03 00
	00 00		 mov	 DWORD PTR _C$[ebp], 3

; 163  : 	int R;
; 164  : 
; 165  : 	__asm {
; 166  : 		mov eax, [B]

  0003d	8b 45 e8	 mov	 eax, DWORD PTR _B$[ebp]

; 167  : 		mul[B]

  00040	f7 65 e8	 mul	 DWORD PTR _B$[ebp]

; 168  : 		mov [R], eax

  00043	89 45 d0	 mov	 DWORD PTR _R$[ebp], eax

; 169  : 
; 170  : 		mov eax, [A]

  00046	8b 45 f4	 mov	 eax, DWORD PTR _A$[ebp]

; 171  : 		mul [C]

  00049	f7 65 dc	 mul	 DWORD PTR _C$[ebp]

; 172  : 		mov [A], eax

  0004c	89 45 f4	 mov	 DWORD PTR _A$[ebp], eax

; 173  : 		mov [C], 4

  0004f	c7 45 dc 04 00
	00 00		 mov	 DWORD PTR _C$[ebp], 4

; 174  : 		mov eax, [A]

  00056	8b 45 f4	 mov	 eax, DWORD PTR _A$[ebp]

; 175  : 		mul [C]

  00059	f7 65 dc	 mul	 DWORD PTR _C$[ebp]

; 176  : 		mov [A], eax

  0005c	89 45 f4	 mov	 DWORD PTR _A$[ebp], eax

; 177  : 
; 178  : 		mov eax, [R]

  0005f	8b 45 d0	 mov	 eax, DWORD PTR _R$[ebp]

; 179  : 		sub eax, [A]

  00062	2b 45 f4	 sub	 eax, DWORD PTR _A$[ebp]

; 180  : 		mov [R], eax

  00065	89 45 d0	 mov	 DWORD PTR _R$[ebp], eax

; 181  : 
; 182  : 	}
; 183  : }

  00068	5f		 pop	 edi
  00069	5e		 pop	 esi
  0006a	5b		 pop	 ebx
  0006b	8b 4d fc	 mov	 ecx, DWORD PTR __$ArrayPad$[ebp]
  0006e	33 cd		 xor	 ecx, ebp
  00070	e8 00 00 00 00	 call	 @__security_check_cookie@4
  00075	81 c4 f4 00 00
	00		 add	 esp, 244		; 000000f4H
  0007b	3b ec		 cmp	 ebp, esp
  0007d	e8 00 00 00 00	 call	 __RTC_CheckEsp
  00082	8b e5		 mov	 esp, ebp
  00084	5d		 pop	 ebp
  00085	c3		 ret	 0
?Delta@@YAXXZ ENDP					; Delta
_TEXT	ENDS
; Function compile flags: /Odtp /RTCsu /ZI
; File d:\facul\6o semestre\arquitetura de computadores\lab\exemplos_x86\exemplos_x86\exemplos_x86.cpp
;	COMDAT ?Relogio@@YAXXZ
_TEXT	SEGMENT
_segundos$ = -24					; size = 4
_minutos$ = -12						; size = 4
__$ArrayPad$ = -4					; size = 4
?Relogio@@YAXXZ PROC					; Relogio, COMDAT

; 140  : void Relogio(void) {

  00000	55		 push	 ebp
  00001	8b ec		 mov	 ebp, esp
  00003	81 ec dc 00 00
	00		 sub	 esp, 220		; 000000dcH
  00009	53		 push	 ebx
  0000a	56		 push	 esi
  0000b	57		 push	 edi
  0000c	8d bd 24 ff ff
	ff		 lea	 edi, DWORD PTR [ebp-220]
  00012	b9 37 00 00 00	 mov	 ecx, 55			; 00000037H
  00017	b8 cc cc cc cc	 mov	 eax, -858993460		; ccccccccH
  0001c	f3 ab		 rep stosd
  0001e	a1 00 00 00 00	 mov	 eax, DWORD PTR ___security_cookie
  00023	33 c5		 xor	 eax, ebp
  00025	89 45 fc	 mov	 DWORD PTR __$ArrayPad$[ebp], eax

; 141  : 	int minutos = 0;

  00028	c7 45 f4 00 00
	00 00		 mov	 DWORD PTR _minutos$[ebp], 0
$loop_minutos$3:

; 142  : 	int segundos;
; 143  : 
; 144  : 	__asm {
; 145  : 		loop_minutos:
; 146  : 			mov ecx, 0

  0002f	b9 00 00 00 00	 mov	 ecx, 0

; 147  : 			mov segundos, 0

  00034	c7 45 e8 00 00
	00 00		 mov	 DWORD PTR _segundos$[ebp], 0
$loop_segundos$4:

; 148  : 			loop_segundos:
; 149  : 				add segundos, 1

  0003b	83 45 e8 01	 add	 DWORD PTR _segundos$[ebp], 1

; 150  : 				inc ecx

  0003f	41		 inc	 ecx

; 151  : 				cmp ecx,59

  00040	83 f9 3b	 cmp	 ecx, 59			; 0000003bH

; 152  : 				jl loop_segundos

  00043	7c f6		 jl	 SHORT $loop_segundos$4

; 153  : 			add minutos, 1

  00045	83 45 f4 01	 add	 DWORD PTR _minutos$[ebp], 1

; 154  : 			cmp minutos, 59

  00049	83 7d f4 3b	 cmp	 DWORD PTR _minutos$[ebp], 59 ; 0000003bH

; 155  : 			jl loop_minutos

  0004d	7c e0		 jl	 SHORT $loop_minutos$3

; 156  : 	}
; 157  : 	Relogio();

  0004f	e8 00 00 00 00	 call	 ?Relogio@@YAXXZ		; Relogio

; 158  : }

  00054	5f		 pop	 edi
  00055	5e		 pop	 esi
  00056	5b		 pop	 ebx
  00057	8b 4d fc	 mov	 ecx, DWORD PTR __$ArrayPad$[ebp]
  0005a	33 cd		 xor	 ecx, ebp
  0005c	e8 00 00 00 00	 call	 @__security_check_cookie@4
  00061	81 c4 dc 00 00
	00		 add	 esp, 220		; 000000dcH
  00067	3b ec		 cmp	 ebp, esp
  00069	e8 00 00 00 00	 call	 __RTC_CheckEsp
  0006e	8b e5		 mov	 esp, ebp
  00070	5d		 pop	 ebp
  00071	c3		 ret	 0
?Relogio@@YAXXZ ENDP					; Relogio
_TEXT	ENDS
; Function compile flags: /Odtp /RTCsu /ZI
; File d:\facul\6o semestre\arquitetura de computadores\lab\exemplos_x86\exemplos_x86\exemplos_x86.cpp
;	COMDAT ?Exemplo5@@YAXXZ
_TEXT	SEGMENT
_valor$ = -32						; size = 4
_str_format$ = -20					; size = 11
__$ArrayPad$ = -4					; size = 4
?Exemplo5@@YAXXZ PROC					; Exemplo5, COMDAT

; 117  : void Exemplo5(void) {

  00000	55		 push	 ebp
  00001	8b ec		 mov	 ebp, esp
  00003	81 ec e4 00 00
	00		 sub	 esp, 228		; 000000e4H
  00009	53		 push	 ebx
  0000a	56		 push	 esi
  0000b	57		 push	 edi
  0000c	8d bd 1c ff ff
	ff		 lea	 edi, DWORD PTR [ebp-228]
  00012	b9 39 00 00 00	 mov	 ecx, 57			; 00000039H
  00017	b8 cc cc cc cc	 mov	 eax, -858993460		; ccccccccH
  0001c	f3 ab		 rep stosd
  0001e	a1 00 00 00 00	 mov	 eax, DWORD PTR ___security_cookie
  00023	33 c5		 xor	 eax, ebp
  00025	89 45 fc	 mov	 DWORD PTR __$ArrayPad$[ebp], eax

; 118  : 
; 119  : 	char str_format[] = "Valor = %i";

  00028	a1 00 00 00 00	 mov	 eax, DWORD PTR ??_C@_0L@IGKLLFEF@Valor?5?$DN?5?$CFi@
  0002d	89 45 ec	 mov	 DWORD PTR _str_format$[ebp], eax
  00030	8b 0d 04 00 00
	00		 mov	 ecx, DWORD PTR ??_C@_0L@IGKLLFEF@Valor?5?$DN?5?$CFi@+4
  00036	89 4d f0	 mov	 DWORD PTR _str_format$[ebp+4], ecx
  00039	66 8b 15 08 00
	00 00		 mov	 dx, WORD PTR ??_C@_0L@IGKLLFEF@Valor?5?$DN?5?$CFi@+8
  00040	66 89 55 f4	 mov	 WORD PTR _str_format$[ebp+8], dx
  00044	a0 0a 00 00 00	 mov	 al, BYTE PTR ??_C@_0L@IGKLLFEF@Valor?5?$DN?5?$CFi@+10
  00049	88 45 f6	 mov	 BYTE PTR _str_format$[ebp+10], al

; 120  : 	int valor = 10;

  0004c	c7 45 e0 0a 00
	00 00		 mov	 DWORD PTR _valor$[ebp], 10 ; 0000000aH

; 121  : 
; 122  : 	//chamada de funo
; 123  : 	__asm {
; 124  : 
; 125  : 		//printf para string de exemplo tem dois parmetros
; 126  : 		//print("Valor = %i", valor);
; 127  : 
; 128  : 		//1 passo: Informar os valor da direita para esquerda na chamada da funo usando a instruo PUSH
; 129  : 		push[valor]

  00053	ff 75 e0	 push	 DWORD PTR _valor$[ebp]

; 130  : 		lea eax, str_format //endereo da string

  00056	8d 45 ec	 lea	 eax, DWORD PTR _str_format$[ebp]

; 131  : 		push eax

  00059	50		 push	 eax

; 132  : 
; 133  : 		//2 passo: chamar a funo com a instruo CALL
; 134  : 		call Exemplo1

  0005a	e8 00 00 00 00	 call	 ?Exemplo1@@YAXXZ	; Exemplo1

; 135  : 
; 136  : 		//3 passo: retornar o valor esp -> Para cada push some 4
; 137  : 		add esp, 8

  0005f	83 c4 08	 add	 esp, 8

; 138  : 	}
; 139  : }

  00062	52		 push	 edx
  00063	8b cd		 mov	 ecx, ebp
  00065	50		 push	 eax
  00066	8d 15 00 00 00
	00		 lea	 edx, DWORD PTR $LN5@Exemplo5
  0006c	e8 00 00 00 00	 call	 @_RTC_CheckStackVars@8
  00071	58		 pop	 eax
  00072	5a		 pop	 edx
  00073	5f		 pop	 edi
  00074	5e		 pop	 esi
  00075	5b		 pop	 ebx
  00076	8b 4d fc	 mov	 ecx, DWORD PTR __$ArrayPad$[ebp]
  00079	33 cd		 xor	 ecx, ebp
  0007b	e8 00 00 00 00	 call	 @__security_check_cookie@4
  00080	81 c4 e4 00 00
	00		 add	 esp, 228		; 000000e4H
  00086	3b ec		 cmp	 ebp, esp
  00088	e8 00 00 00 00	 call	 __RTC_CheckEsp
  0008d	8b e5		 mov	 esp, ebp
  0008f	5d		 pop	 ebp
  00090	c3		 ret	 0
  00091	0f 1f 00	 npad	 3
$LN5@Exemplo5:
  00094	01 00 00 00	 DD	 1
  00098	00 00 00 00	 DD	 $LN4@Exemplo5
$LN4@Exemplo5:
  0009c	ec ff ff ff	 DD	 -20			; ffffffecH
  000a0	0b 00 00 00	 DD	 11			; 0000000bH
  000a4	00 00 00 00	 DD	 $LN3@Exemplo5
$LN3@Exemplo5:
  000a8	73		 DB	 115			; 00000073H
  000a9	74		 DB	 116			; 00000074H
  000aa	72		 DB	 114			; 00000072H
  000ab	5f		 DB	 95			; 0000005fH
  000ac	66		 DB	 102			; 00000066H
  000ad	6f		 DB	 111			; 0000006fH
  000ae	72		 DB	 114			; 00000072H
  000af	6d		 DB	 109			; 0000006dH
  000b0	61		 DB	 97			; 00000061H
  000b1	74		 DB	 116			; 00000074H
  000b2	00		 DB	 0
?Exemplo5@@YAXXZ ENDP					; Exemplo5
_TEXT	ENDS
; Function compile flags: /Odtp /RTCsu /ZI
; File d:\facul\6o semestre\arquitetura de computadores\lab\exemplos_x86\exemplos_x86\exemplos_x86.cpp
;	COMDAT ?Exemplo4@@YAXXZ
_TEXT	SEGMENT
?Exemplo4@@YAXXZ PROC					; Exemplo4, COMDAT

; 101  : {

  00000	55		 push	 ebp
  00001	8b ec		 mov	 ebp, esp
  00003	81 ec c0 00 00
	00		 sub	 esp, 192		; 000000c0H
  00009	53		 push	 ebx
  0000a	56		 push	 esi
  0000b	57		 push	 edi
  0000c	8d bd 40 ff ff
	ff		 lea	 edi, DWORD PTR [ebp-192]
  00012	b9 30 00 00 00	 mov	 ecx, 48			; 00000030H
  00017	b8 cc cc cc cc	 mov	 eax, -858993460		; ccccccccH
  0001c	f3 ab		 rep stosd

; 102  : 	__asm {
; 103  : 		mov ecx, 0 //contador = 0

  0001e	b9 00 00 00 00	 mov	 ecx, 0

; 104  : 		mov eax, 0

  00023	b8 00 00 00 00	 mov	 eax, 0
$loop_while$3:

; 105  : 		//enquando contador < 5
; 106  : 		loop_while:
; 107  : 		//procedimento executado
; 108  : 		add eax, 5

  00028	83 c0 05	 add	 eax, 5

; 109  : 
; 110  : 			//controle de execuo do lao
; 111  : 			inc ecx

  0002b	41		 inc	 ecx

; 112  : 			cmp ecx, 5

  0002c	83 f9 05	 cmp	 ecx, 5

; 113  : 			jl loop_while

  0002f	7c f7		 jl	 SHORT $loop_while$3

; 114  : 
; 115  : 	}
; 116  : }

  00031	5f		 pop	 edi
  00032	5e		 pop	 esi
  00033	5b		 pop	 ebx
  00034	81 c4 c0 00 00
	00		 add	 esp, 192		; 000000c0H
  0003a	3b ec		 cmp	 ebp, esp
  0003c	e8 00 00 00 00	 call	 __RTC_CheckEsp
  00041	8b e5		 mov	 esp, ebp
  00043	5d		 pop	 ebp
  00044	c3		 ret	 0
?Exemplo4@@YAXXZ ENDP					; Exemplo4
_TEXT	ENDS
; Function compile flags: /Odtp /RTCsu /ZI
; File d:\facul\6o semestre\arquitetura de computadores\lab\exemplos_x86\exemplos_x86\exemplos_x86.cpp
;	COMDAT ?Exemplo3@@YAXXZ
_TEXT	SEGMENT
_vetor$ = -28						; size = 20
__$ArrayPad$ = -4					; size = 4
?Exemplo3@@YAXXZ PROC					; Exemplo3, COMDAT

; 80   : {

  00000	55		 push	 ebp
  00001	8b ec		 mov	 ebp, esp
  00003	81 ec e0 00 00
	00		 sub	 esp, 224		; 000000e0H
  00009	53		 push	 ebx
  0000a	56		 push	 esi
  0000b	57		 push	 edi
  0000c	8d bd 20 ff ff
	ff		 lea	 edi, DWORD PTR [ebp-224]
  00012	b9 38 00 00 00	 mov	 ecx, 56			; 00000038H
  00017	b8 cc cc cc cc	 mov	 eax, -858993460		; ccccccccH
  0001c	f3 ab		 rep stosd
  0001e	a1 00 00 00 00	 mov	 eax, DWORD PTR ___security_cookie
  00023	33 c5		 xor	 eax, ebp
  00025	89 45 fc	 mov	 DWORD PTR __$ArrayPad$[ebp], eax

; 81   : 	int vetor[] = { 10,20,30,40,50 };

  00028	c7 45 e4 0a 00
	00 00		 mov	 DWORD PTR _vetor$[ebp], 10 ; 0000000aH
  0002f	c7 45 e8 14 00
	00 00		 mov	 DWORD PTR _vetor$[ebp+4], 20 ; 00000014H
  00036	c7 45 ec 1e 00
	00 00		 mov	 DWORD PTR _vetor$[ebp+8], 30 ; 0000001eH
  0003d	c7 45 f0 28 00
	00 00		 mov	 DWORD PTR _vetor$[ebp+12], 40 ; 00000028H
  00044	c7 45 f4 32 00
	00 00		 mov	 DWORD PTR _vetor$[ebp+16], 50 ; 00000032H

; 82   : 
; 83   : 	__asm {
; 84   : 		mov eax, [vetor + 0]

  0004b	8b 45 e4	 mov	 eax, DWORD PTR _vetor$[ebp]

; 85   : 		mov eax, [vetor + 4]

  0004e	8b 45 e8	 mov	 eax, DWORD PTR _vetor$[ebp+4]

; 86   : 		mov eax, [vetor + 8]

  00051	8b 45 ec	 mov	 eax, DWORD PTR _vetor$[ebp+8]

; 87   : 		mov eax, [vetor + 12]

  00054	8b 45 f0	 mov	 eax, DWORD PTR _vetor$[ebp+12]

; 88   : 		mov eax, [vetor + 16]

  00057	8b 45 f4	 mov	 eax, DWORD PTR _vetor$[ebp+16]

; 89   : 
; 90   : 		mov esi, 0 //ndice = 0

  0005a	be 00 00 00 00	 mov	 esi, 0

; 91   : 		mov eax, [vetor + esi * 4]

  0005f	8b 84 b5 e4 ff
	ff ff		 mov	 eax, DWORD PTR _vetor$[ebp+esi*4]

; 92   : 
; 93   : 		inc esi  //ndice = 1

  00066	46		 inc	 esi

; 94   : 		mov eax, [vetor + esi * 4]

  00067	8b 84 b5 e4 ff
	ff ff		 mov	 eax, DWORD PTR _vetor$[ebp+esi*4]

; 95   : 
; 96   : 		inc esi  //ndice = 2

  0006e	46		 inc	 esi

; 97   : 		mov eax, [vetor + esi * 4]

  0006f	8b 84 b5 e4 ff
	ff ff		 mov	 eax, DWORD PTR _vetor$[ebp+esi*4]

; 98   : 	}
; 99   : }

  00076	52		 push	 edx
  00077	8b cd		 mov	 ecx, ebp
  00079	50		 push	 eax
  0007a	8d 15 00 00 00
	00		 lea	 edx, DWORD PTR $LN5@Exemplo3
  00080	e8 00 00 00 00	 call	 @_RTC_CheckStackVars@8
  00085	58		 pop	 eax
  00086	5a		 pop	 edx
  00087	5f		 pop	 edi
  00088	5e		 pop	 esi
  00089	5b		 pop	 ebx
  0008a	8b 4d fc	 mov	 ecx, DWORD PTR __$ArrayPad$[ebp]
  0008d	33 cd		 xor	 ecx, ebp
  0008f	e8 00 00 00 00	 call	 @__security_check_cookie@4
  00094	81 c4 e0 00 00
	00		 add	 esp, 224		; 000000e0H
  0009a	3b ec		 cmp	 ebp, esp
  0009c	e8 00 00 00 00	 call	 __RTC_CheckEsp
  000a1	8b e5		 mov	 esp, ebp
  000a3	5d		 pop	 ebp
  000a4	c3		 ret	 0
  000a5	0f 1f 00	 npad	 3
$LN5@Exemplo3:
  000a8	01 00 00 00	 DD	 1
  000ac	00 00 00 00	 DD	 $LN4@Exemplo3
$LN4@Exemplo3:
  000b0	e4 ff ff ff	 DD	 -28			; ffffffe4H
  000b4	14 00 00 00	 DD	 20			; 00000014H
  000b8	00 00 00 00	 DD	 $LN3@Exemplo3
$LN3@Exemplo3:
  000bc	76		 DB	 118			; 00000076H
  000bd	65		 DB	 101			; 00000065H
  000be	74		 DB	 116			; 00000074H
  000bf	6f		 DB	 111			; 0000006fH
  000c0	72		 DB	 114			; 00000072H
  000c1	00		 DB	 0
?Exemplo3@@YAXXZ ENDP					; Exemplo3
_TEXT	ENDS
; Function compile flags: /Odtp /RTCsu /ZI
; File d:\facul\6o semestre\arquitetura de computadores\lab\exemplos_x86\exemplos_x86\exemplos_x86.cpp
;	COMDAT ?Exemplo2@@YAXXZ
_TEXT	SEGMENT
_R$ = -36						; size = 4
_B$ = -24						; size = 4
_A$ = -12						; size = 4
__$ArrayPad$ = -4					; size = 4
?Exemplo2@@YAXXZ PROC					; Exemplo2, COMDAT

; 52   : {

  00000	55		 push	 ebp
  00001	8b ec		 mov	 ebp, esp
  00003	81 ec e8 00 00
	00		 sub	 esp, 232		; 000000e8H
  00009	53		 push	 ebx
  0000a	56		 push	 esi
  0000b	57		 push	 edi
  0000c	8d bd 18 ff ff
	ff		 lea	 edi, DWORD PTR [ebp-232]
  00012	b9 3a 00 00 00	 mov	 ecx, 58			; 0000003aH
  00017	b8 cc cc cc cc	 mov	 eax, -858993460		; ccccccccH
  0001c	f3 ab		 rep stosd
  0001e	a1 00 00 00 00	 mov	 eax, DWORD PTR ___security_cookie
  00023	33 c5		 xor	 eax, ebp
  00025	89 45 fc	 mov	 DWORD PTR __$ArrayPad$[ebp], eax

; 53   : 	int A = 26;

  00028	c7 45 f4 1a 00
	00 00		 mov	 DWORD PTR _A$[ebp], 26	; 0000001aH

; 54   : 	int B = 5;

  0002f	c7 45 e8 05 00
	00 00		 mov	 DWORD PTR _B$[ebp], 5

; 55   : 	int R;
; 56   : 
; 57   : 	//Operaes Aritmticas
; 58   : 	__asm {
; 59   : 		mov eax, [A] //EAX=A

  00036	8b 45 f4	 mov	 eax, DWORD PTR _A$[ebp]

; 60   : 		add eax, [B] //EAX=A+B

  00039	03 45 e8	 add	 eax, DWORD PTR _B$[ebp]

; 61   : 		mov[R], eax  //R=EAX

  0003c	89 45 dc	 mov	 DWORD PTR _R$[ebp], eax

; 62   : 
; 63   : 		mov eax, [A] //EAX=A

  0003f	8b 45 f4	 mov	 eax, DWORD PTR _A$[ebp]

; 64   : 		sub eax, [B] //EAX=A-B

  00042	2b 45 e8	 sub	 eax, DWORD PTR _B$[ebp]

; 65   : 		mov[R], eax  //R=EAX

  00045	89 45 dc	 mov	 DWORD PTR _R$[ebp], eax

; 66   : 
; 67   : 		//Multiplicao de EAX por um registrador ou varivel
; 68   : 		mov eax, [A] //EAX=A

  00048	8b 45 f4	 mov	 eax, DWORD PTR _A$[ebp]

; 69   : 		mul[B] //EAX=A+B

  0004b	f7 65 e8	 mul	 DWORD PTR _B$[ebp]

; 70   : 		mov[R], eax  //R=EAX

  0004e	89 45 dc	 mov	 DWORD PTR _R$[ebp], eax

; 71   : 
; 72   : 		//Divide EDX:EAX por um registrador ou varivel
; 73   : 		mov edx, 0

  00051	ba 00 00 00 00	 mov	 edx, 0

; 74   : 		mov eax, [A] //EAX=A

  00056	8b 45 f4	 mov	 eax, DWORD PTR _A$[ebp]

; 75   : 		idiv[B] //EAX =A/B

  00059	f7 7d e8	 idiv	 DWORD PTR _B$[ebp]

; 76   : 		mov[R], EAX //resultado est em EAX e o resto em EDX

  0005c	89 45 dc	 mov	 DWORD PTR _R$[ebp], eax

; 77   : 	}
; 78   : }

  0005f	5f		 pop	 edi
  00060	5e		 pop	 esi
  00061	5b		 pop	 ebx
  00062	8b 4d fc	 mov	 ecx, DWORD PTR __$ArrayPad$[ebp]
  00065	33 cd		 xor	 ecx, ebp
  00067	e8 00 00 00 00	 call	 @__security_check_cookie@4
  0006c	81 c4 e8 00 00
	00		 add	 esp, 232		; 000000e8H
  00072	3b ec		 cmp	 ebp, esp
  00074	e8 00 00 00 00	 call	 __RTC_CheckEsp
  00079	8b e5		 mov	 esp, ebp
  0007b	5d		 pop	 ebp
  0007c	c3		 ret	 0
?Exemplo2@@YAXXZ ENDP					; Exemplo2
_TEXT	ENDS
; Function compile flags: /Odtp /RTCsu /ZI
; File d:\facul\6o semestre\arquitetura de computadores\lab\exemplos_x86\exemplos_x86\exemplos_x86.cpp
;	COMDAT ?Exemplo1@@YAXXZ
_TEXT	SEGMENT
_var1$ = -12						; size = 4
__$ArrayPad$ = -4					; size = 4
?Exemplo1@@YAXXZ PROC					; Exemplo1, COMDAT

; 37   : {

  00000	55		 push	 ebp
  00001	8b ec		 mov	 ebp, esp
  00003	81 ec d0 00 00
	00		 sub	 esp, 208		; 000000d0H
  00009	53		 push	 ebx
  0000a	56		 push	 esi
  0000b	57		 push	 edi
  0000c	8d bd 30 ff ff
	ff		 lea	 edi, DWORD PTR [ebp-208]
  00012	b9 34 00 00 00	 mov	 ecx, 52			; 00000034H
  00017	b8 cc cc cc cc	 mov	 eax, -858993460		; ccccccccH
  0001c	f3 ab		 rep stosd
  0001e	a1 00 00 00 00	 mov	 eax, DWORD PTR ___security_cookie
  00023	33 c5		 xor	 eax, ebp
  00025	89 45 fc	 mov	 DWORD PTR __$ArrayPad$[ebp], eax

; 38   : 	int var1 = 10;

  00028	c7 45 f4 0a 00
	00 00		 mov	 DWORD PTR _var1$[ebp], 10 ; 0000000aH

; 39   : 
; 40   : 	//Movimentao de dados
; 41   : 	__asm {
; 42   : 		//para registradores
; 43   : 		mov eax, 2 //EAX=2

  0002f	b8 02 00 00 00	 mov	 eax, 2

; 44   : 		mov eax, [var1] //EAX=var1

  00034	8b 45 f4	 mov	 eax, DWORD PTR _var1$[ebp]

; 45   : 
; 46   : 		//para endereos de memria
; 47   : 		mov[var1], 2 //var1=2

  00037	c7 45 f4 02 00
	00 00		 mov	 DWORD PTR _var1$[ebp], 2

; 48   : 		mov[var1], eax //var1=EAX

  0003e	89 45 f4	 mov	 DWORD PTR _var1$[ebp], eax

; 49   : 	}
; 50   : }

  00041	5f		 pop	 edi
  00042	5e		 pop	 esi
  00043	5b		 pop	 ebx
  00044	8b 4d fc	 mov	 ecx, DWORD PTR __$ArrayPad$[ebp]
  00047	33 cd		 xor	 ecx, ebp
  00049	e8 00 00 00 00	 call	 @__security_check_cookie@4
  0004e	81 c4 d0 00 00
	00		 add	 esp, 208		; 000000d0H
  00054	3b ec		 cmp	 ebp, esp
  00056	e8 00 00 00 00	 call	 __RTC_CheckEsp
  0005b	8b e5		 mov	 esp, ebp
  0005d	5d		 pop	 ebp
  0005e	c3		 ret	 0
?Exemplo1@@YAXXZ ENDP					; Exemplo1
_TEXT	ENDS
; Function compile flags: /Odtp /RTCsu /ZI
; File c:\program files (x86)\microsoft visual studio\2017\community\vc\tools\msvc\14.16.27023\include\iosfwd
;	COMDAT ?eof@?$char_traits@D@std@@SAHXZ
_TEXT	SEGMENT
__$EHRec$ = -12						; size = 12
?eof@?$char_traits@D@std@@SAHXZ PROC			; std::char_traits<char>::eof, COMDAT

; 540  : 		{	// return end-of-file metacharacter

  00000	55		 push	 ebp
  00001	8b ec		 mov	 ebp, esp
  00003	6a ff		 push	 -1
  00005	68 00 00 00 00	 push	 __ehhandler$?eof@?$char_traits@D@std@@SAHXZ
  0000a	64 a1 00 00 00
	00		 mov	 eax, DWORD PTR fs:0
  00010	50		 push	 eax
  00011	81 ec c0 00 00
	00		 sub	 esp, 192		; 000000c0H
  00017	53		 push	 ebx
  00018	56		 push	 esi
  00019	57		 push	 edi
  0001a	8d bd 34 ff ff
	ff		 lea	 edi, DWORD PTR [ebp-204]
  00020	b9 30 00 00 00	 mov	 ecx, 48			; 00000030H
  00025	b8 cc cc cc cc	 mov	 eax, -858993460		; ccccccccH
  0002a	f3 ab		 rep stosd
  0002c	a1 00 00 00 00	 mov	 eax, DWORD PTR ___security_cookie
  00031	33 c5		 xor	 eax, ebp
  00033	50		 push	 eax
  00034	8d 45 f4	 lea	 eax, DWORD PTR __$EHRec$[ebp]
  00037	64 a3 00 00 00
	00		 mov	 DWORD PTR fs:0, eax
  0003d	b9 00 00 00 00	 mov	 ecx, OFFSET __7E39D651_iosfwd
  00042	e8 00 00 00 00	 call	 @__CheckForDebuggerJustMyCode@4

; 541  : 		return (EOF);

  00047	83 c8 ff	 or	 eax, -1

; 542  : 		}

  0004a	8b 4d f4	 mov	 ecx, DWORD PTR __$EHRec$[ebp]
  0004d	64 89 0d 00 00
	00 00		 mov	 DWORD PTR fs:0, ecx
  00054	59		 pop	 ecx
  00055	5f		 pop	 edi
  00056	5e		 pop	 esi
  00057	5b		 pop	 ebx
  00058	81 c4 cc 00 00
	00		 add	 esp, 204		; 000000ccH
  0005e	3b ec		 cmp	 ebp, esp
  00060	e8 00 00 00 00	 call	 __RTC_CheckEsp
  00065	8b e5		 mov	 esp, ebp
  00067	5d		 pop	 ebp
  00068	c3		 ret	 0
_TEXT	ENDS
;	COMDAT text$x
text$x	SEGMENT
__ehhandler$?eof@?$char_traits@D@std@@SAHXZ:
  00000	8b 54 24 08	 mov	 edx, DWORD PTR [esp+8]
  00004	8d 42 0c	 lea	 eax, DWORD PTR [edx+12]
  00007	8b 8a 30 ff ff
	ff		 mov	 ecx, DWORD PTR [edx-208]
  0000d	33 c8		 xor	 ecx, eax
  0000f	e8 00 00 00 00	 call	 @__security_check_cookie@4
  00014	b8 00 00 00 00	 mov	 eax, OFFSET __ehfuncinfo$?eof@?$char_traits@D@std@@SAHXZ
  00019	e9 00 00 00 00	 jmp	 ___CxxFrameHandler3
text$x	ENDS
?eof@?$char_traits@D@std@@SAHXZ ENDP			; std::char_traits<char>::eof
; Function compile flags: /Odtp /RTCsu /ZI
; File c:\program files (x86)\microsoft visual studio\2017\community\vc\tools\msvc\14.16.27023\include\iosfwd
;	COMDAT ?eq_int_type@?$char_traits@D@std@@SA_NABH0@Z
_TEXT	SEGMENT
tv65 = -208						; size = 4
__$EHRec$ = -12						; size = 12
__Left$ = 8						; size = 4
__Right$ = 12						; size = 4
?eq_int_type@?$char_traits@D@std@@SA_NABH0@Z PROC	; std::char_traits<char>::eq_int_type, COMDAT

; 530  : 		{	// test for metacharacter equality

  00000	55		 push	 ebp
  00001	8b ec		 mov	 ebp, esp
  00003	6a ff		 push	 -1
  00005	68 00 00 00 00	 push	 __ehhandler$?eq_int_type@?$char_traits@D@std@@SA_NABH0@Z
  0000a	64 a1 00 00 00
	00		 mov	 eax, DWORD PTR fs:0
  00010	50		 push	 eax
  00011	81 ec c4 00 00
	00		 sub	 esp, 196		; 000000c4H
  00017	53		 push	 ebx
  00018	56		 push	 esi
  00019	57		 push	 edi
  0001a	8d bd 30 ff ff
	ff		 lea	 edi, DWORD PTR [ebp-208]
  00020	b9 31 00 00 00	 mov	 ecx, 49			; 00000031H
  00025	b8 cc cc cc cc	 mov	 eax, -858993460		; ccccccccH
  0002a	f3 ab		 rep stosd
  0002c	a1 00 00 00 00	 mov	 eax, DWORD PTR ___security_cookie
  00031	33 c5		 xor	 eax, ebp
  00033	50		 push	 eax
  00034	8d 45 f4	 lea	 eax, DWORD PTR __$EHRec$[ebp]
  00037	64 a3 00 00 00
	00		 mov	 DWORD PTR fs:0, eax
  0003d	b9 00 00 00 00	 mov	 ecx, OFFSET __7E39D651_iosfwd
  00042	e8 00 00 00 00	 call	 @__CheckForDebuggerJustMyCode@4

; 531  : 		return (_Left == _Right);

  00047	8b 45 08	 mov	 eax, DWORD PTR __Left$[ebp]
  0004a	8b 4d 0c	 mov	 ecx, DWORD PTR __Right$[ebp]
  0004d	8b 10		 mov	 edx, DWORD PTR [eax]
  0004f	3b 11		 cmp	 edx, DWORD PTR [ecx]
  00051	75 0c		 jne	 SHORT $LN3@eq_int_typ
  00053	c7 85 30 ff ff
	ff 01 00 00 00	 mov	 DWORD PTR tv65[ebp], 1
  0005d	eb 0a		 jmp	 SHORT $LN4@eq_int_typ
$LN3@eq_int_typ:
  0005f	c7 85 30 ff ff
	ff 00 00 00 00	 mov	 DWORD PTR tv65[ebp], 0
$LN4@eq_int_typ:
  00069	8a 85 30 ff ff
	ff		 mov	 al, BYTE PTR tv65[ebp]

; 532  : 		}

  0006f	8b 4d f4	 mov	 ecx, DWORD PTR __$EHRec$[ebp]
  00072	64 89 0d 00 00
	00 00		 mov	 DWORD PTR fs:0, ecx
  00079	59		 pop	 ecx
  0007a	5f		 pop	 edi
  0007b	5e		 pop	 esi
  0007c	5b		 pop	 ebx
  0007d	81 c4 d0 00 00
	00		 add	 esp, 208		; 000000d0H
  00083	3b ec		 cmp	 ebp, esp
  00085	e8 00 00 00 00	 call	 __RTC_CheckEsp
  0008a	8b e5		 mov	 esp, ebp
  0008c	5d		 pop	 ebp
  0008d	c3		 ret	 0
_TEXT	ENDS
;	COMDAT text$x
text$x	SEGMENT
__ehhandler$?eq_int_type@?$char_traits@D@std@@SA_NABH0@Z:
  00000	8b 54 24 08	 mov	 edx, DWORD PTR [esp+8]
  00004	8d 42 0c	 lea	 eax, DWORD PTR [edx+12]
  00007	8b 8a 2c ff ff
	ff		 mov	 ecx, DWORD PTR [edx-212]
  0000d	33 c8		 xor	 ecx, eax
  0000f	e8 00 00 00 00	 call	 @__security_check_cookie@4
  00014	b8 00 00 00 00	 mov	 eax, OFFSET __ehfuncinfo$?eq_int_type@?$char_traits@D@std@@SA_NABH0@Z
  00019	e9 00 00 00 00	 jmp	 ___CxxFrameHandler3
text$x	ENDS
?eq_int_type@?$char_traits@D@std@@SA_NABH0@Z ENDP	; std::char_traits<char>::eq_int_type
; Function compile flags: /Odtp /RTCsu /ZI
; File c:\program files (x86)\microsoft visual studio\2017\community\vc\tools\msvc\14.16.27023\include\iosfwd
;	COMDAT ?length@?$char_traits@D@std@@SAIQBD@Z
_TEXT	SEGMENT
__$EHRec$ = -12						; size = 12
__First$ = 8						; size = 4
?length@?$char_traits@D@std@@SAIQBD@Z PROC		; std::char_traits<char>::length, COMDAT

; 460  : 		{	// find length of null-terminated string

  00000	55		 push	 ebp
  00001	8b ec		 mov	 ebp, esp
  00003	6a ff		 push	 -1
  00005	68 00 00 00 00	 push	 __ehhandler$?length@?$char_traits@D@std@@SAIQBD@Z
  0000a	64 a1 00 00 00
	00		 mov	 eax, DWORD PTR fs:0
  00010	50		 push	 eax
  00011	81 ec c0 00 00
	00		 sub	 esp, 192		; 000000c0H
  00017	53		 push	 ebx
  00018	56		 push	 esi
  00019	57		 push	 edi
  0001a	8d bd 34 ff ff
	ff		 lea	 edi, DWORD PTR [ebp-204]
  00020	b9 30 00 00 00	 mov	 ecx, 48			; 00000030H
  00025	b8 cc cc cc cc	 mov	 eax, -858993460		; ccccccccH
  0002a	f3 ab		 rep stosd
  0002c	a1 00 00 00 00	 mov	 eax, DWORD PTR ___security_cookie
  00031	33 c5		 xor	 eax, ebp
  00033	50		 push	 eax
  00034	8d 45 f4	 lea	 eax, DWORD PTR __$EHRec$[ebp]
  00037	64 a3 00 00 00
	00		 mov	 DWORD PTR fs:0, eax
  0003d	b9 00 00 00 00	 mov	 ecx, OFFSET __7E39D651_iosfwd
  00042	e8 00 00 00 00	 call	 @__CheckForDebuggerJustMyCode@4

; 461  : #if _HAS_CXX17
; 462  : 		return (__builtin_strlen(_First));
; 463  : #else /* _HAS_CXX17 */
; 464  : 		return (_CSTD strlen(_First));

  00047	8b 45 08	 mov	 eax, DWORD PTR __First$[ebp]
  0004a	50		 push	 eax
  0004b	e8 00 00 00 00	 call	 _strlen
  00050	83 c4 04	 add	 esp, 4

; 465  : #endif /* _HAS_CXX17 */
; 466  : 		}

  00053	8b 4d f4	 mov	 ecx, DWORD PTR __$EHRec$[ebp]
  00056	64 89 0d 00 00
	00 00		 mov	 DWORD PTR fs:0, ecx
  0005d	59		 pop	 ecx
  0005e	5f		 pop	 edi
  0005f	5e		 pop	 esi
  00060	5b		 pop	 ebx
  00061	81 c4 cc 00 00
	00		 add	 esp, 204		; 000000ccH
  00067	3b ec		 cmp	 ebp, esp
  00069	e8 00 00 00 00	 call	 __RTC_CheckEsp
  0006e	8b e5		 mov	 esp, ebp
  00070	5d		 pop	 ebp
  00071	c3		 ret	 0
_TEXT	ENDS
;	COMDAT text$x
text$x	SEGMENT
__ehhandler$?length@?$char_traits@D@std@@SAIQBD@Z:
  00000	8b 54 24 08	 mov	 edx, DWORD PTR [esp+8]
  00004	8d 42 0c	 lea	 eax, DWORD PTR [edx+12]
  00007	8b 8a 30 ff ff
	ff		 mov	 ecx, DWORD PTR [edx-208]
  0000d	33 c8		 xor	 ecx, eax
  0000f	e8 00 00 00 00	 call	 @__security_check_cookie@4
  00014	b8 00 00 00 00	 mov	 eax, OFFSET __ehfuncinfo$?length@?$char_traits@D@std@@SAIQBD@Z
  00019	e9 00 00 00 00	 jmp	 ___CxxFrameHandler3
text$x	ENDS
?length@?$char_traits@D@std@@SAIQBD@Z ENDP		; std::char_traits<char>::length
; Function compile flags: /Odtp /RTCsu /ZI
; File d:\facul\6o semestre\arquitetura de computadores\lab\exemplos_x86\exemplos_x86\exemplos_x86.cpp
;	COMDAT ?__empty_global_delete@@YAXPAXI@Z
_TEXT	SEGMENT
___formal$ = 8						; size = 4
___formal$ = 12						; size = 4
?__empty_global_delete@@YAXPAXI@Z PROC			; __empty_global_delete, COMDAT

  00000	55		 push	 ebp
  00001	8b ec		 mov	 ebp, esp
  00003	81 ec c0 00 00
	00		 sub	 esp, 192		; 000000c0H
  00009	53		 push	 ebx
  0000a	56		 push	 esi
  0000b	57		 push	 edi
  0000c	8d bd 40 ff ff
	ff		 lea	 edi, DWORD PTR [ebp-192]
  00012	b9 30 00 00 00	 mov	 ecx, 48			; 00000030H
  00017	b8 cc cc cc cc	 mov	 eax, -858993460		; ccccccccH
  0001c	f3 ab		 rep stosd
  0001e	b9 00 00 00 00	 mov	 ecx, OFFSET __A8B04EBD_exemplos_x86@cpp
  00023	e8 00 00 00 00	 call	 @__CheckForDebuggerJustMyCode@4
  00028	5f		 pop	 edi
  00029	5e		 pop	 esi
  0002a	5b		 pop	 ebx
  0002b	81 c4 c0 00 00
	00		 add	 esp, 192		; 000000c0H
  00031	3b ec		 cmp	 ebp, esp
  00033	e8 00 00 00 00	 call	 __RTC_CheckEsp
  00038	8b e5		 mov	 esp, ebp
  0003a	5d		 pop	 ebp
  0003b	c3		 ret	 0
?__empty_global_delete@@YAXPAXI@Z ENDP			; __empty_global_delete
_TEXT	ENDS
; Function compile flags: /Odtp /RTCsu /ZI
; File d:\facul\6o semestre\arquitetura de computadores\lab\exemplos_x86\exemplos_x86\exemplos_x86.cpp
;	COMDAT ?__empty_global_delete@@YAXPAX@Z
_TEXT	SEGMENT
___formal$ = 8						; size = 4
?__empty_global_delete@@YAXPAX@Z PROC			; __empty_global_delete, COMDAT

  00000	55		 push	 ebp
  00001	8b ec		 mov	 ebp, esp
  00003	81 ec c0 00 00
	00		 sub	 esp, 192		; 000000c0H
  00009	53		 push	 ebx
  0000a	56		 push	 esi
  0000b	57		 push	 edi
  0000c	8d bd 40 ff ff
	ff		 lea	 edi, DWORD PTR [ebp-192]
  00012	b9 30 00 00 00	 mov	 ecx, 48			; 00000030H
  00017	b8 cc cc cc cc	 mov	 eax, -858993460		; ccccccccH
  0001c	f3 ab		 rep stosd
  0001e	b9 00 00 00 00	 mov	 ecx, OFFSET __A8B04EBD_exemplos_x86@cpp
  00023	e8 00 00 00 00	 call	 @__CheckForDebuggerJustMyCode@4
  00028	5f		 pop	 edi
  00029	5e		 pop	 esi
  0002a	5b		 pop	 ebx
  0002b	81 c4 c0 00 00
	00		 add	 esp, 192		; 000000c0H
  00031	3b ec		 cmp	 ebp, esp
  00033	e8 00 00 00 00	 call	 __RTC_CheckEsp
  00038	8b e5		 mov	 esp, ebp
  0003a	5d		 pop	 ebp
  0003b	c3		 ret	 0
?__empty_global_delete@@YAXPAX@Z ENDP			; __empty_global_delete
_TEXT	ENDS
END
